

Microchip MPLAB XC8 Assembler V2.31 build 20201012212115 
                                                                                               Fri Jun 04 10:42:15 2021

Microchip MPLAB XC8 C Compiler v2.31 (Free license) build 20201012212115 Og1 
     1                           	processor	16F887
     2                           	pagewidth 120
     3                           	opt	flic
     4                           	psect	strings,global,class=STRING,delta=2,noexec
     5                           	psect	stringtext,global,reloc=256,class=STRCODE,delta=2,noexec
     6                           	psect	cinit,global,class=CODE,merge=1,delta=2
     7                           	psect	bssCOMMON,global,class=COMMON,space=1,delta=1,noexec
     8                           	psect	bssBANK0,global,class=BANK0,space=1,delta=1,noexec
     9                           	psect	cstackCOMMON,global,class=COMMON,space=1,delta=1,noexec
    10                           	psect	cstackBANK0,global,class=BANK0,space=1,delta=1,noexec
    11                           	psect	maintext,global,class=CODE,split=1,delta=2
    12                           	psect	text1,local,class=CODE,merge=1,delta=2
    13                           	psect	text2,local,class=CODE,merge=1,delta=2,group=1
    14                           	psect	text3,local,class=CODE,merge=1,delta=2
    15                           	psect	text4,local,class=CODE,merge=1,delta=2
    16                           	psect	text5,local,class=CODE,merge=1,delta=2
    17                           	psect	intentry,global,class=CODE,delta=2
    18                           	psect	text6,local,class=CODE,merge=1,delta=2
    19                           	psect	text7,local,class=CODE,merge=1,delta=2
    20                           	psect	config,global,abs,ovrld,class=CONFIG,space=4,delta=2,noexec
    21                           	dabs	1,0x7E,2
    22  0000                     
    23                           ; Version 2.20
    24                           ; Generated 12/02/2020 GMT
    25                           ; 
    26                           ; Copyright © 2020, Microchip Technology Inc. and its subsidiaries ("Microchip")
    27                           ; All rights reserved.
    28                           ; 
    29                           ; This software is developed by Microchip Technology Inc. and its subsidiaries ("Microch
      +                          ip").
    30                           ; 
    31                           ; Redistribution and use in source and binary forms, with or without modification, are
    32                           ; permitted provided that the following conditions are met:
    33                           ; 
    34                           ;     1. Redistributions of source code must retain the above copyright notice, this lis
      +                          t of
    35                           ;        conditions and the following disclaimer.
    36                           ; 
    37                           ;     2. Redistributions in binary form must reproduce the above copyright notice, this 
      +                          list
    38                           ;        of conditions and the following disclaimer in the documentation and/or other
    39                           ;        materials provided with the distribution.
    40                           ; 
    41                           ;     3. Microchip's name may not be used to endorse or promote products derived from th
      +                          is
    42                           ;        software without specific prior written permission.
    43                           ; 
    44                           ; THIS SOFTWARE IS PROVIDED BY MICROCHIP "AS IS" AND ANY EXPRESS OR IMPLIED WARRANTIES,
    45                           ; INCLUDING, BUT NOT LIMITED TO, THE IMPLIED WARRANTIES OF MERCHANTABILITY AND FITNESS F
      +                          OR
    46                           ; PURPOSE ARE DISCLAIMED.  IN NO EVENT SHALL MICROCHIP BE LIABLE FOR ANY DIRECT, INDIREC
      +                          T,
    47                           ; INCIDENTAL, SPECIAL, EXEMPLARY, OR CONSEQUENTIAL DAMAGES (INCLUDING BUT NOT LIMITED TO
    48                           ; PROCUREMENT OF SUBSTITUTE GOODS OR SERVICES; LOSS OF USE, DATA OR PROFITS; OR BUSINESS
    49                           ; INTERRUPTION) HOWSOEVER CAUSED AND ON ANY THEORY OF LIABILITY, WHETHER IN CONTRACT, ST
      +                          RICT
    50                           ; LIABILITY, OR TORT (INCLUDING NEGLIGENCE OR OTHERWISE) ARISING IN ANY WAY OUT OF THE U
      +                          SE OF
    51                           ; THIS SOFTWARE, EVEN IF ADVISED OF THE POSSIBILITY OF SUCH DAMAGE.
    52                           ; 
    53                           ; 
    54                           ; Code-generator required, PIC16F887 Definitions
    55                           ; 
    56                           ; SFR Addresses
    57  0000                     	;# 
    58  0001                     	;# 
    59  0002                     	;# 
    60  0003                     	;# 
    61  0004                     	;# 
    62  0005                     	;# 
    63  0006                     	;# 
    64  0007                     	;# 
    65  0008                     	;# 
    66  0009                     	;# 
    67  000A                     	;# 
    68  000B                     	;# 
    69  000C                     	;# 
    70  000D                     	;# 
    71  000E                     	;# 
    72  000E                     	;# 
    73  000F                     	;# 
    74  0010                     	;# 
    75  0011                     	;# 
    76  0012                     	;# 
    77  0013                     	;# 
    78  0014                     	;# 
    79  0015                     	;# 
    80  0015                     	;# 
    81  0016                     	;# 
    82  0017                     	;# 
    83  0018                     	;# 
    84  0019                     	;# 
    85  001A                     	;# 
    86  001B                     	;# 
    87  001B                     	;# 
    88  001C                     	;# 
    89  001D                     	;# 
    90  001E                     	;# 
    91  001F                     	;# 
    92  0081                     	;# 
    93  0085                     	;# 
    94  0086                     	;# 
    95  0087                     	;# 
    96  0088                     	;# 
    97  0089                     	;# 
    98  008C                     	;# 
    99  008D                     	;# 
   100  008E                     	;# 
   101  008F                     	;# 
   102  0090                     	;# 
   103  0091                     	;# 
   104  0092                     	;# 
   105  0093                     	;# 
   106  0093                     	;# 
   107  0093                     	;# 
   108  0094                     	;# 
   109  0095                     	;# 
   110  0096                     	;# 
   111  0097                     	;# 
   112  0098                     	;# 
   113  0099                     	;# 
   114  009A                     	;# 
   115  009B                     	;# 
   116  009C                     	;# 
   117  009D                     	;# 
   118  009E                     	;# 
   119  009F                     	;# 
   120  0105                     	;# 
   121  0107                     	;# 
   122  0108                     	;# 
   123  0109                     	;# 
   124  010C                     	;# 
   125  010C                     	;# 
   126  010D                     	;# 
   127  010E                     	;# 
   128  010F                     	;# 
   129  0185                     	;# 
   130  0187                     	;# 
   131  0188                     	;# 
   132  0189                     	;# 
   133  018C                     	;# 
   134  018D                     	;# 
   135  0000                     	;# 
   136  0001                     	;# 
   137  0002                     	;# 
   138  0003                     	;# 
   139  0004                     	;# 
   140  0005                     	;# 
   141  0006                     	;# 
   142  0007                     	;# 
   143  0008                     	;# 
   144  0009                     	;# 
   145  000A                     	;# 
   146  000B                     	;# 
   147  000C                     	;# 
   148  000D                     	;# 
   149  000E                     	;# 
   150  000E                     	;# 
   151  000F                     	;# 
   152  0010                     	;# 
   153  0011                     	;# 
   154  0012                     	;# 
   155  0013                     	;# 
   156  0014                     	;# 
   157  0015                     	;# 
   158  0015                     	;# 
   159  0016                     	;# 
   160  0017                     	;# 
   161  0018                     	;# 
   162  0019                     	;# 
   163  001A                     	;# 
   164  001B                     	;# 
   165  001B                     	;# 
   166  001C                     	;# 
   167  001D                     	;# 
   168  001E                     	;# 
   169  001F                     	;# 
   170  0081                     	;# 
   171  0085                     	;# 
   172  0086                     	;# 
   173  0087                     	;# 
   174  0088                     	;# 
   175  0089                     	;# 
   176  008C                     	;# 
   177  008D                     	;# 
   178  008E                     	;# 
   179  008F                     	;# 
   180  0090                     	;# 
   181  0091                     	;# 
   182  0092                     	;# 
   183  0093                     	;# 
   184  0093                     	;# 
   185  0093                     	;# 
   186  0094                     	;# 
   187  0095                     	;# 
   188  0096                     	;# 
   189  0097                     	;# 
   190  0098                     	;# 
   191  0099                     	;# 
   192  009A                     	;# 
   193  009B                     	;# 
   194  009C                     	;# 
   195  009D                     	;# 
   196  009E                     	;# 
   197  009F                     	;# 
   198  0105                     	;# 
   199  0107                     	;# 
   200  0108                     	;# 
   201  0109                     	;# 
   202  010C                     	;# 
   203  010C                     	;# 
   204  010D                     	;# 
   205  010E                     	;# 
   206  010F                     	;# 
   207  0185                     	;# 
   208  0187                     	;# 
   209  0188                     	;# 
   210  0189                     	;# 
   211  018C                     	;# 
   212  018D                     	;# 
   213  001A                     _RCREG	set	26
   214  0019                     _TXREG	set	25
   215  000D                     _PIR2bits	set	13
   216  0018                     _RCSTAbits	set	24
   217  0001                     _TMR0	set	1
   218  0012                     _T2CONbits	set	18
   219  001D                     _CCP2CONbits	set	29
   220  0017                     _CCP1CONbits	set	23
   221  0009                     _PORTE	set	9
   222  0008                     _PORTD	set	8
   223  0007                     _PORTC	set	7
   224  0006                     _PORTB	set	6
   225  0005                     _PORTA	set	5
   226  0009                     _PORTEbits	set	9
   227  0006                     _PORTBbits	set	6
   228  000B                     _INTCONbits	set	11
   229  000C                     _PIR1bits	set	12
   230  001B                     _CCPR2L	set	27
   231  0015                     _CCPR1L	set	21
   232  001E                     _ADRESH	set	30
   233  001F                     _ADCON0bits	set	31
   234  0065                     _RCIF	set	101
   235  0064                     _TXIF	set	100
   236  0058                     _RBIF	set	88
   237  0041                     _RD1	set	65
   238  0040                     _RD0	set	64
   239  0066                     _ADIF	set	102
   240  009A                     _SPBRGH	set	154
   241  0099                     _SPBRG	set	153
   242  0098                     _TXSTAbits	set	152
   243  008C                     _PIE1bits	set	140
   244  0092                     _PR2	set	146
   245  0087                     _TRISCbits	set	135
   246  009F                     _ADCON1bits	set	159
   247  0096                     _IOCBbits	set	150
   248  0095                     _WPUBbits	set	149
   249  0081                     _OPTION_REGbits	set	129
   250  008F                     _OSCCONbits	set	143
   251  0089                     _TRISE	set	137
   252  0088                     _TRISD	set	136
   253  0087                     _TRISC	set	135
   254  0086                     _TRISB	set	134
   255  0085                     _TRISA	set	133
   256  010C                     _EEDAT	set	268
   257  010D                     _EEADR	set	269
   258  018D                     _EECON2	set	397
   259  018C                     _EECON1bits	set	396
   260  0187                     _BAUDCTLbits	set	391
   261  0189                     _ANSELH	set	393
   262  0188                     _ANSEL	set	392
   263                           
   264                           	psect	strings
   265  027E                     __pstrings:
   266  027E                     stringtab:
   267  027E                     __stringtab:
   268                           
   269                           ;	String table - string pointers are 2 bytes each
   270  027E  1BFF               	btfsc	btemp+1,7
   271  027F  2A88               	ljmp	stringcode
   272  0280  1383               	bcf	3,7
   273  0281  187F               	btfsc	btemp+1,0
   274  0282  1783               	bsf	3,7
   275  0283  0800               	movf	0,w
   276  0284  0A84               	incf	4,f
   277  0285  1903               	skipnz
   278  0286  0AFF               	incf	btemp+1,f
   279  0287  0008               	return
   280  0288                     stringcode:
   281  0288  087F               	movf	btemp+1,w
   282  0289  397F               	andlw	127
   283  028A  008A               	movwf	10
   284  028B  0804               	movf	4,w
   285  028C  0A84               	incf	4,f
   286  028D  1903               	skipnz
   287  028E  0AFF               	incf	btemp+1,f
   288  028F  0082               	movwf	2
   289  0290                     __stringbase:
   290  0290                     __end_of__stringtab:
   291                           
   292                           	psect	stringtext
   293  0300                     __pstringtext:
   294  0300                     STR_3:
   295  0300  3420               	retlw	32	;' '
   296  0301  3428               	retlw	40	;'('
   297  0302  3432               	retlw	50	;'2'
   298  0303  3429               	retlw	41	;')'
   299  0304  3420               	retlw	32	;' '
   300  0305  3479               	retlw	121	;'y'
   301  0306  3461               	retlw	97	;'a'
   302  0307  3420               	retlw	32	;' '
   303  0308  346E               	retlw	110	;'n'
   304  0309  346F               	retlw	111	;'o'
   305  030A  342C               	retlw	44	;','
   306  030B  3420               	retlw	32	;' '
   307  030C  3479               	retlw	121	;'y'
   308  030D  3461               	retlw	97	;'a'
   309  030E  3420               	retlw	32	;' '
   310  030F  346E               	retlw	110	;'n'
   311  0310  346F               	retlw	111	;'o'
   312  0311  3420               	retlw	32	;' '
   313  0312  3471               	retlw	113	;'q'
   314  0313  3475               	retlw	117	;'u'
   315  0314  3469               	retlw	105	;'i'
   316  0315  3465               	retlw	101	;'e'
   317  0316  3472               	retlw	114	;'r'
   318  0317  346F               	retlw	111	;'o'
   319  0318  3420               	retlw	32	;' '
   320  0319  3468               	retlw	104	;'h'
   321  031A  3461               	retlw	97	;'a'
   322  031B  3463               	retlw	99	;'c'
   323  031C  3465               	retlw	101	;'e'
   324  031D  3472               	retlw	114	;'r'
   325  031E  3420               	retlw	32	;' '
   326  031F  346E               	retlw	110	;'n'
   327  0320  3461               	retlw	97	;'a'
   328  0321  3464               	retlw	100	;'d'
   329  0322  3461               	retlw	97	;'a'
   330  0323  3420               	retlw	32	;' '
   331  0324  3455               	retlw	85	;'U'
   332  0325  346E               	retlw	110	;'n'
   333  0326  3455               	retlw	85	;'U'
   334  0327  343A               	retlw	58	;':'
   335  0328  3420               	retlw	32	;' '
   336  0329  340D               	retlw	13
   337  032A  3400               	retlw	0
   338  032B                     STR_7:
   339  032B  340D               	retlw	13
   340  032C  340D               	retlw	13
   341  032D  3420               	retlw	32	;' '
   342  032E  3428               	retlw	40	;'('
   343  032F  3433               	retlw	51	;'3'
   344  0330  3429               	retlw	41	;')'
   345  0331  3420               	retlw	32	;' '
   346  0332  344E               	retlw	78	;'N'
   347  0333  3469               	retlw	105	;'i'
   348  0334  3474               	retlw	116	;'t'
   349  0335  3472               	retlw	114	;'r'
   350  0336  346F               	retlw	111	;'o'
   351  0337  342C               	retlw	44	;','
   352  0338  3420               	retlw	32	;' '
   353  0339  346C               	retlw	108	;'l'
   354  033A  3461               	retlw	97	;'a'
   355  033B  3420               	retlw	32	;' '
   356  033C  3476               	retlw	118	;'v'
   357  033D  3465               	retlw	101	;'e'
   358  033E  346C               	retlw	108	;'l'
   359  033F  346F               	retlw	111	;'o'
   360  0340  3463               	retlw	99	;'c'
   361  0341  3469               	retlw	105	;'i'
   362  0342  3464               	retlw	100	;'d'
   363  0343  3461               	retlw	97	;'a'
   364  0344  3464               	retlw	100	;'d'
   365  0345  3420               	retlw	32	;' '
   366  0346  3470               	retlw	112	;'p'
   367  0347  3475               	retlw	117	;'u'
   368  0348  3465               	retlw	101	;'e'
   369  0349  3473               	retlw	115	;'s'
   370  034A  3400               	retlw	0
   371  034B                     STR_1:
   372  034B  340D               	retlw	13
   373  034C  3420               	retlw	32	;' '
   374  034D  3445               	retlw	69	;'E'
   375  034E  3473               	retlw	115	;'s'
   376  034F  3463               	retlw	99	;'c'
   377  0350  346F               	retlw	111	;'o'
   378  0351  3467               	retlw	103	;'g'
   379  0352  3465               	retlw	101	;'e'
   380  0353  3420               	retlw	32	;' '
   381  0354  3475               	retlw	117	;'u'
   382  0355  346E               	retlw	110	;'n'
   383  0356  3461               	retlw	97	;'a'
   384  0357  3420               	retlw	32	;' '
   385  0358  346F               	retlw	111	;'o'
   386  0359  3470               	retlw	112	;'p'
   387  035A  3463               	retlw	99	;'c'
   388  035B  3469               	retlw	105	;'i'
   389  035C  346F               	retlw	111	;'o'
   390  035D  346E               	retlw	110	;'n'
   391  035E  342C               	retlw	44	;','
   392  035F  3420               	retlw	32	;' '
   393  0360  3463               	retlw	99	;'c'
   394  0361  3468               	retlw	104	;'h'
   395  0362  3461               	retlw	97	;'a'
   396  0363  3476               	retlw	118	;'v'
   397  0364  346F               	retlw	111	;'o'
   398  0365  343A               	retlw	58	;':'
   399  0366  3420               	retlw	32	;' '
   400  0367  340D               	retlw	13
   401  0368  3400               	retlw	0
   402  0369                     STR_4:
   403  0369  340D               	retlw	13
   404  036A  340D               	retlw	13
   405  036B  3451               	retlw	81	;'Q'
   406  036C  3475               	retlw	117	;'u'
   407  036D  3465               	retlw	101	;'e'
   408  036E  3420               	retlw	32	;' '
   409  036F  346D               	retlw	109	;'m'
   410  0370  346F               	retlw	111	;'o'
   411  0371  3474               	retlw	116	;'t'
   412  0372  346F               	retlw	111	;'o'
   413  0373  3472               	retlw	114	;'r'
   414  0374  3420               	retlw	32	;' '
   415  0375  3464               	retlw	100	;'d'
   416  0376  3465               	retlw	101	;'e'
   417  0377  3473               	retlw	115	;'s'
   418  0378  3465               	retlw	101	;'e'
   419  0379  3461               	retlw	97	;'a'
   420  037A  3420               	retlw	32	;' '
   421  037B  3463               	retlw	99	;'c'
   422  037C  346F               	retlw	111	;'o'
   423  037D  346E               	retlw	110	;'n'
   424  037E  3474               	retlw	116	;'t'
   425  037F  3472               	retlw	114	;'r'
   426  0380  346F               	retlw	111	;'o'
   427  0381  346C               	retlw	108	;'l'
   428  0382  3461               	retlw	97	;'a'
   429  0383  3472               	retlw	114	;'r'
   430  0384  343A               	retlw	58	;':'
   431  0385  3400               	retlw	0
   432  0386                     STR_8:
   433  0386  340D               	retlw	13
   434  0387  340D               	retlw	13
   435  0388  3420               	retlw	32	;' '
   436  0389  3470               	retlw	112	;'p'
   437  038A  3461               	retlw	97	;'a'
   438  038B  3420               	retlw	32	;' '
   439  038C  3464               	retlw	100	;'d'
   440  038D  346F               	retlw	111	;'o'
   441  038E  346E               	retlw	110	;'n'
   442  038F  3464               	retlw	100	;'d'
   443  0390  3465               	retlw	101	;'e'
   444  0391  3420               	retlw	32	;' '
   445  0392  3471               	retlw	113	;'q'
   446  0393  3475               	retlw	117	;'u'
   447  0394  3465               	retlw	101	;'e'
   448  0395  3472               	retlw	114	;'r'
   449  0396  3465               	retlw	101	;'e'
   450  0397  3473               	retlw	115	;'s'
   451  0398  3420               	retlw	32	;' '
   452  0399  3467               	retlw	103	;'g'
   453  039A  3469               	retlw	105	;'i'
   454  039B  3472               	retlw	114	;'r'
   455  039C  3461               	retlw	97	;'a'
   456  039D  3472               	retlw	114	;'r'
   457  039E  343F               	retlw	63	;'?'
   458  039F  343A               	retlw	58	;':'
   459  03A0  3400               	retlw	0
   460  03A1                     STR_2:
   461  03A1  3420               	retlw	32	;' '
   462  03A2  3428               	retlw	40	;'('
   463  03A3  3431               	retlw	49	;'1'
   464  03A4  3429               	retlw	41	;')'
   465  03A5  3420               	retlw	32	;' '
   466  03A6  3443               	retlw	67	;'C'
   467  03A7  346F               	retlw	111	;'o'
   468  03A8  346E               	retlw	110	;'n'
   469  03A9  3474               	retlw	116	;'t'
   470  03AA  3472               	retlw	114	;'r'
   471  03AB  346F               	retlw	111	;'o'
   472  03AC  346C               	retlw	108	;'l'
   473  03AD  3461               	retlw	97	;'a'
   474  03AE  3472               	retlw	114	;'r'
   475  03AF  3420               	retlw	32	;' '
   476  03B0  346D               	retlw	109	;'m'
   477  03B1  346F               	retlw	111	;'o'
   478  03B2  3474               	retlw	116	;'t'
   479  03B3  346F               	retlw	111	;'o'
   480  03B4  3472               	retlw	114	;'r'
   481  03B5  3465               	retlw	101	;'e'
   482  03B6  3473               	retlw	115	;'s'
   483  03B7  343A               	retlw	58	;':'
   484  03B8  3420               	retlw	32	;' '
   485  03B9  340D               	retlw	13
   486  03BA  3400               	retlw	0
   487  03BB                     STR_16:
   488  03BB  340D               	retlw	13
   489  03BC  340D               	retlw	13
   490  03BD  3420               	retlw	32	;' '
   491  03BE  3451               	retlw	81	;'Q'
   492  03BF  3475               	retlw	117	;'u'
   493  03C0  3465               	retlw	101	;'e'
   494  03C1  3420               	retlw	32	;' '
   495  03C2  3476               	retlw	118	;'v'
   496  03C3  3465               	retlw	101	;'e'
   497  03C4  346C               	retlw	108	;'l'
   498  03C5  346F               	retlw	111	;'o'
   499  03C6  3463               	retlw	99	;'c'
   500  03C7  3469               	retlw	105	;'i'
   501  03C8  3464               	retlw	100	;'d'
   502  03C9  3461               	retlw	97	;'a'
   503  03CA  3464               	retlw	100	;'d'
   504  03CB  3420               	retlw	32	;' '
   505  03CC  3471               	retlw	113	;'q'
   506  03CD  3475               	retlw	117	;'u'
   507  03CE  3469               	retlw	105	;'i'
   508  03CF  3465               	retlw	101	;'e'
   509  03D0  3472               	retlw	114	;'r'
   510  03D1  3465               	retlw	101	;'e'
   511  03D2  343F               	retlw	63	;'?'
   512  03D3  343A               	retlw	58	;':'
   513  03D4  3400               	retlw	0
   514  03D5                     STR_17:
   515  03D5  340D               	retlw	13
   516  03D6  340D               	retlw	13
   517  03D7  3420               	retlw	32	;' '
   518  03D8  3428               	retlw	40	;'('
   519  03D9  3461               	retlw	97	;'a'
   520  03DA  3429               	retlw	41	;')'
   521  03DB  3420               	retlw	32	;' '
   522  03DC  3472               	retlw	114	;'r'
   523  03DD  3461               	retlw	97	;'a'
   524  03DE  3470               	retlw	112	;'p'
   525  03DF  3469               	retlw	105	;'i'
   526  03E0  3464               	retlw	100	;'d'
   527  03E1  346F               	retlw	111	;'o'
   528  03E2  3473               	retlw	115	;'s'
   529  03E3  3420               	retlw	32	;' '
   530  03E4  3479               	retlw	121	;'y'
   531  03E5  3420               	retlw	32	;' '
   532  03E6  3466               	retlw	102	;'f'
   533  03E7  3475               	retlw	117	;'u'
   534  03E8  3472               	retlw	114	;'r'
   535  03E9  3469               	retlw	105	;'i'
   536  03EA  346F               	retlw	111	;'o'
   537  03EB  3473               	retlw	115	;'s'
   538  03EC  346F               	retlw	111	;'o'
   539  03ED  3473               	retlw	115	;'s'
   540  03EE  3400               	retlw	0
   541  03EF                     STR_18:
   542  03EF  340D               	retlw	13
   543  03F0  340D               	retlw	13
   544  03F1  3420               	retlw	32	;' '
   545  03F2  3428               	retlw	40	;'('
   546  03F3  3462               	retlw	98	;'b'
   547  03F4  3429               	retlw	41	;')'
   548  03F5  3420               	retlw	32	;' '
   549  03F6  346A               	retlw	106	;'j'
   550  03F7  3475               	retlw	117	;'u'
   551  03F8  3465               	retlw	101	;'e'
   552  03F9  3420               	retlw	32	;' '
   553  03FA  346D               	retlw	109	;'m'
   554  03FB  3461               	retlw	97	;'a'
   555  03FC  3464               	retlw	100	;'d'
   556  03FD  3472               	retlw	114	;'r'
   557  03FE  3465               	retlw	101	;'e'
   558  03FF  342C               	retlw	44	;','
   559  0400  3420               	retlw	32	;' '
   560  0401  3466               	retlw	102	;'f'
   561  0402  3472               	retlw	114	;'r'
   562  0403  3465               	retlw	101	;'e'
   563  0404  346E               	retlw	110	;'n'
   564  0405  3461               	retlw	97	;'a'
   565  0406  3472               	retlw	114	;'r'
   566  0407  3400               	retlw	0
   567  0408                     STR_6:
   568  0408  340D               	retlw	13
   569  0409  340D               	retlw	13
   570  040A  3420               	retlw	32	;' '
   571  040B  3428               	retlw	40	;'('
   572  040C  3432               	retlw	50	;'2'
   573  040D  3429               	retlw	41	;')'
   574  040E  344D               	retlw	77	;'M'
   575  040F  346F               	retlw	111	;'o'
   576  0410  3464               	retlw	100	;'d'
   577  0411  346F               	retlw	111	;'o'
   578  0412  3420               	retlw	32	;' '
   579  0413  3464               	retlw	100	;'d'
   580  0414  3465               	retlw	101	;'e'
   581  0415  346C               	retlw	108	;'l'
   582  0416  3420               	retlw	32	;' '
   583  0417  3461               	retlw	97	;'a'
   584  0418  346C               	retlw	108	;'l'
   585  0419  3465               	retlw	101	;'e'
   586  041A  3472               	retlw	114	;'r'
   587  041B  346F               	retlw	111	;'o'
   588  041C  346E               	retlw	110	;'n'
   589  041D  3400               	retlw	0
   590  041E                     STR_12:
   591  041E  340D               	retlw	13
   592  041F  340D               	retlw	13
   593  0420  3420               	retlw	32	;' '
   594  0421  346D               	retlw	109	;'m'
   595  0422  346F               	retlw	111	;'o'
   596  0423  3464               	retlw	100	;'d'
   597  0424  346F               	retlw	111	;'o'
   598  0425  3420               	retlw	32	;' '
   599  0426  3464               	retlw	100	;'d'
   600  0427  3465               	retlw	101	;'e'
   601  0428  346C               	retlw	108	;'l'
   602  0429  3420               	retlw	32	;' '
   603  042A  3461               	retlw	97	;'a'
   604  042B  346C               	retlw	108	;'l'
   605  042C  3465               	retlw	101	;'e'
   606  042D  3472               	retlw	114	;'r'
   607  042E  346F               	retlw	111	;'o'
   608  042F  346E               	retlw	110	;'n'
   609  0430  343A               	retlw	58	;':'
   610  0431  3400               	retlw	0
   611  0432                     STR_20:
   612  0432  340D               	retlw	13
   613  0433  340D               	retlw	13
   614  0434  3441               	retlw	65	;'A'
   615  0435  3464               	retlw	100	;'d'
   616  0436  3469               	retlw	105	;'i'
   617  0437  346F               	retlw	111	;'o'
   618  0438  3473               	retlw	115	;'s'
   619  0439  3420               	retlw	32	;' '
   620  043A  3463               	retlw	99	;'c'
   621  043B  3468               	retlw	104	;'h'
   622  043C  346F               	retlw	111	;'o'
   623  043D  3472               	retlw	114	;'r'
   624  043E  3469               	retlw	105	;'i'
   625  043F  3470               	retlw	112	;'p'
   626  0440  3461               	retlw	97	;'a'
   627  0441  346E               	retlw	110	;'n'
   628  0442  340D               	retlw	13
   629  0443  3400               	retlw	0
   630  0444                     STR_19:
   631  0444  340D               	retlw	13
   632  0445  340D               	retlw	13
   633  0446  3420               	retlw	32	;' '
   634  0447  3428               	retlw	40	;'('
   635  0448  3463               	retlw	99	;'c'
   636  0449  3429               	retlw	41	;')'
   637  044A  346D               	retlw	109	;'m'
   638  044B  3465               	retlw	101	;'e'
   639  044C  3468               	retlw	104	;'h'
   640  044D  342C               	retlw	44	;','
   641  044E  3420               	retlw	32	;' '
   642  044F  346E               	retlw	110	;'n'
   643  0450  346F               	retlw	111	;'o'
   644  0451  3472               	retlw	114	;'r'
   645  0452  346D               	retlw	109	;'m'
   646  0453  3461               	retlw	97	;'a'
   647  0454  346C               	retlw	108	;'l'
   648  0455  3400               	retlw	0
   649  0456                     STR_10:
   650  0456  340D               	retlw	13
   651  0457  340D               	retlw	13
   652  0458  3420               	retlw	32	;' '
   653  0459  3428               	retlw	40	;'('
   654  045A  3462               	retlw	98	;'b'
   655  045B  3429               	retlw	41	;')'
   656  045C  3449               	retlw	73	;'I'
   657  045D  347A               	retlw	122	;'z'
   658  045E  3471               	retlw	113	;'q'
   659  045F  3475               	retlw	117	;'u'
   660  0460  3469               	retlw	105	;'i'
   661  0461  3465               	retlw	101	;'e'
   662  0462  3472               	retlw	114	;'r'
   663  0463  3464               	retlw	100	;'d'
   664  0464  3461               	retlw	97	;'a'
   665  0465  3400               	retlw	0
   666  0466                     STR_13:
   667  0466  340D               	retlw	13
   668  0467  340D               	retlw	13
   669  0468  3420               	retlw	32	;' '
   670  0469  3428               	retlw	40	;'('
   671  046A  3461               	retlw	97	;'a'
   672  046B  3429               	retlw	41	;')'
   673  046C  3420               	retlw	32	;' '
   674  046D  3463               	retlw	99	;'c'
   675  046E  3461               	retlw	97	;'a'
   676  046F  3472               	retlw	114	;'r'
   677  0470  3472               	retlw	114	;'r'
   678  0471  3465               	retlw	101	;'e'
   679  0472  3472               	retlw	114	;'r'
   680  0473  3461               	retlw	97	;'a'
   681  0474  3400               	retlw	0
   682  0475                     STR_9:
   683  0475  340D               	retlw	13
   684  0476  340D               	retlw	13
   685  0477  3420               	retlw	32	;' '
   686  0478  3428               	retlw	40	;'('
   687  0479  3461               	retlw	97	;'a'
   688  047A  3429               	retlw	41	;')'
   689  047B  3444               	retlw	68	;'D'
   690  047C  3465               	retlw	101	;'e'
   691  047D  3472               	retlw	114	;'r'
   692  047E  3465               	retlw	101	;'e'
   693  047F  3463               	retlw	99	;'c'
   694  0480  3468               	retlw	104	;'h'
   695  0481  3461               	retlw	97	;'a'
   696  0482  3400               	retlw	0
   697  0483                     STR_15:
   698  0483  340D               	retlw	13
   699  0484  340D               	retlw	13
   700  0485  3420               	retlw	32	;' '
   701  0486  3428               	retlw	40	;'('
   702  0487  3463               	retlw	99	;'c'
   703  0488  3429               	retlw	41	;')'
   704  0489  3420               	retlw	32	;' '
   705  048A  346E               	retlw	110	;'n'
   706  048B  346F               	retlw	111	;'o'
   707  048C  3472               	retlw	114	;'r'
   708  048D  346D               	retlw	109	;'m'
   709  048E  3461               	retlw	97	;'a'
   710  048F  346C               	retlw	108	;'l'
   711  0490  3400               	retlw	0
   712  0491                     STR_14:
   713  0491  340D               	retlw	13
   714  0492  340D               	retlw	13
   715  0493  3420               	retlw	32	;' '
   716  0494  3428               	retlw	40	;'('
   717  0495  3462               	retlw	98	;'b'
   718  0496  3429               	retlw	41	;')'
   719  0497  3420               	retlw	32	;' '
   720  0498  3466               	retlw	102	;'f'
   721  0499  3472               	retlw	114	;'r'
   722  049A  3461               	retlw	97	;'a'
   723  049B  346E               	retlw	110	;'n'
   724  049C  3464               	retlw	100	;'d'
   725  049D  346F               	retlw	111	;'o'
   726  049E  3400               	retlw	0
   727  049F                     STR_11:
   728  049F  340D               	retlw	13
   729  04A0  340D               	retlw	13
   730  04A1  3420               	retlw	32	;' '
   731  04A2  3428               	retlw	40	;'('
   732  04A3  3463               	retlw	99	;'c'
   733  04A4  3429               	retlw	41	;')'
   734  04A5  3443               	retlw	67	;'C'
   735  04A6  3465               	retlw	101	;'e'
   736  04A7  346E               	retlw	110	;'n'
   737  04A8  3474               	retlw	116	;'t'
   738  04A9  3472               	retlw	114	;'r'
   739  04AA  346F               	retlw	111	;'o'
   740  04AB  3400               	retlw	0
   741  04AC                     STR_5:
   742  04AC  340D               	retlw	13
   743  04AD  340D               	retlw	13
   744  04AE  3420               	retlw	32	;' '
   745  04AF  3428               	retlw	40	;'('
   746  04B0  3431               	retlw	49	;'1'
   747  04B1  3429               	retlw	41	;')'
   748  04B2  3447               	retlw	71	;'G'
   749  04B3  3469               	retlw	105	;'i'
   750  04B4  3472               	retlw	114	;'r'
   751  04B5  346F               	retlw	111	;'o'
   752  04B6  3400               	retlw	0
   753                           
   754                           	psect	cinit
   755  000F                     start_initialization:	
   756                           ; #config settings
   757                           
   758  000F                     __initialization:
   759                           
   760                           ; Clear objects allocated to COMMON
   761  000F  01F8               	clrf	__pbssCOMMON& (0+127)
   762  0010  01F9               	clrf	(__pbssCOMMON+1)& (0+127)
   763  0011  01FA               	clrf	(__pbssCOMMON+2)& (0+127)
   764  0012  01FB               	clrf	(__pbssCOMMON+3)& (0+127)
   765  0013  01FC               	clrf	(__pbssCOMMON+4)& (0+127)
   766  0014  01FD               	clrf	(__pbssCOMMON+5)& (0+127)
   767                           
   768                           ; Clear objects allocated to BANK0
   769  0015  1283               	bcf	3,5	;RP0=0, select bank0
   770  0016  1303               	bcf	3,6	;RP1=0, select bank0
   771  0017  01AC               	clrf	__pbssBANK0& (0+127)
   772  0018  01AD               	clrf	(__pbssBANK0+1)& (0+127)
   773  0019  01AE               	clrf	(__pbssBANK0+2)& (0+127)
   774  001A  01AF               	clrf	(__pbssBANK0+3)& (0+127)
   775  001B  01B0               	clrf	(__pbssBANK0+4)& (0+127)
   776  001C  01B1               	clrf	(__pbssBANK0+5)& (0+127)
   777  001D  01B2               	clrf	(__pbssBANK0+6)& (0+127)
   778  001E                     end_of_initialization:	
   779                           ;End of C runtime variable initialization code
   780                           
   781  001E                     __end_of__initialization:
   782  001E  0183               	clrf	3
   783  001F  120A  118A  2E1C   	ljmp	_main	;jump to C main() function
   784                           
   785                           	psect	bssCOMMON
   786  0078                     __pbssCOMMON:
   787  0078                     _bandera:
   788  0078                     	ds	1
   789  0079                     _var2:
   790  0079                     	ds	1
   791  007A                     _var1:
   792  007A                     	ds	1
   793  007B                     _lectura2:
   794  007B                     	ds	1
   795  007C                     _lectura1:
   796  007C                     	ds	1
   797  007D                     _dato:
   798  007D                     	ds	1
   799                           
   800                           	psect	bssBANK0
   801  002C                     __pbssBANK0:
   802  002C                     _valor_ADC:
   803  002C                     	ds	2
   804  002E                     _motores:
   805  002E                     	ds	2
   806  0030                     _N_timer0:
   807  0030                     	ds	2
   808  0032                     _localidad:
   809  0032                     	ds	1
   810                           
   811                           	psect	cstackCOMMON
   812  0070                     __pcstackCOMMON:
   813  0070                     ?_escribir:
   814  0070                     ?_leer:	
   815                           ; 1 bytes @ 0x0
   816                           
   817  0070                     ??_leer:	
   818                           ; 1 bytes @ 0x0
   819                           
   820  0070                     ?_setup:	
   821                           ; 1 bytes @ 0x0
   822                           
   823  0070                     ?_terminal:	
   824                           ; 1 bytes @ 0x0
   825                           
   826  0070                     ?_interrupcion:	
   827                           ; 1 bytes @ 0x0
   828                           
   829  0070                     ?_main:	
   830                           ; 1 bytes @ 0x0
   831                           
   832  0070                     ?_putch:	
   833                           ; 1 bytes @ 0x0
   834                           
   835  0070                     escribir@localidad:	
   836                           ; 1 bytes @ 0x0
   837                           
   838                           
   839                           ; 1 bytes @ 0x0
   840  0070                     	ds	1
   841  0071                     ??_escribir:
   842  0071                     escribir@dato:	
   843                           ; 1 bytes @ 0x1
   844                           
   845  0071                     leer@localidad:	
   846                           ; 1 bytes @ 0x1
   847                           
   848                           
   849                           ; 1 bytes @ 0x1
   850  0071                     	ds	1
   851  0072                     leer@dato:
   852                           
   853                           ; 1 bytes @ 0x2
   854  0072                     	ds	1
   855  0073                     ??_interrupcion:
   856                           
   857                           ; 1 bytes @ 0x3
   858  0073                     	ds	5
   859                           
   860                           	psect	cstackBANK0
   861  0020                     __pcstackBANK0:
   862  0020                     ??_setup:
   863  0020                     ??_putch:	
   864                           ; 1 bytes @ 0x0
   865                           
   866  0020                     putch@valor:	
   867                           ; 1 bytes @ 0x0
   868                           
   869                           
   870                           ; 1 bytes @ 0x0
   871  0020                     	ds	1
   872  0021                     ?_printf:
   873  0021                     printf@f:	
   874                           ; 2 bytes @ 0x1
   875                           
   876                           
   877                           ; 2 bytes @ 0x1
   878  0021                     	ds	2
   879  0023                     ??_printf:
   880                           
   881                           ; 1 bytes @ 0x3
   882  0023                     	ds	3
   883  0026                     printf@ap:
   884                           
   885                           ; 1 bytes @ 0x6
   886  0026                     	ds	1
   887  0027                     printf@c:
   888                           
   889                           ; 1 bytes @ 0x7
   890  0027                     	ds	1
   891  0028                     ??_terminal:
   892                           
   893                           ; 1 bytes @ 0x8
   894  0028                     	ds	3
   895  002B                     ??_main:
   896                           
   897                           ; 1 bytes @ 0xB
   898  002B                     	ds	1
   899                           
   900                           	psect	maintext
   901  061C                     __pmaintext:	
   902 ;;
   903 ;;Main: autosize = 0, tempsize = 1, incstack = 0, save=0
   904 ;;
   905 ;; *************** function _main *****************
   906 ;; Defined at:
   907 ;;		line 125 in file "Proyecto2.c"
   908 ;; Parameters:    Size  Location     Type
   909 ;;		None
   910 ;; Auto vars:     Size  Location     Type
   911 ;;		None
   912 ;; Return value:  Size  Location     Type
   913 ;;                  1    wreg      void 
   914 ;; Registers used:
   915 ;;		wreg, fsr0l, fsr0h, status,2, status,0, btemp+1, pclath, cstack
   916 ;; Tracked objects:
   917 ;;		On entry : B00/0
   918 ;;		On exit  : 0/0
   919 ;;		Unchanged: 0/0
   920 ;; Data sizes:     COMMON   BANK0   BANK1   BANK3   BANK2
   921 ;;      Params:         0       0       0       0       0
   922 ;;      Locals:         0       0       0       0       0
   923 ;;      Temps:          0       1       0       0       0
   924 ;;      Totals:         0       1       0       0       0
   925 ;;Total ram usage:        1 bytes
   926 ;; Hardware stack levels required when called:    5
   927 ;; This function calls:
   928 ;;		_setup
   929 ;;		_terminal
   930 ;; This function is called by:
   931 ;;		Startup code after reset
   932 ;; This function uses a non-reentrant model
   933 ;;
   934                           
   935                           
   936                           ;psect for function _main
   937  061C                     _main:
   938  061C                     l1494:	
   939                           ;incstack = 0
   940                           ; Regs used in _main: [wreg-fsr0h+status,2+status,0+btemp+1+pclath+cstack]
   941                           
   942                           
   943                           ;Proyecto2.c: 126:     TRISA = 0b00001111;
   944  061C  120A  118A  259A  120A  118A  	fcall	_setup
   945  0621                     l1496:
   946                           
   947                           ;Proyecto2.c: 127:     TRISB = 0b11100000;
   948  0621  1283               	bcf	3,5	;RP0=0, select bank0
   949  0622  1303               	bcf	3,6	;RP1=0, select bank0
   950  0623  149F               	bsf	31,1	;volatile
   951  0624                     l1498:
   952                           
   953                           ;Proyecto2.c: 130:     TRISE = 0b000;
   954  0624  0378               	decf	_bandera,w
   955  0625  1D03               	btfss	3,2
   956  0626  2E28               	goto	u761
   957  0627  2E29               	goto	u760
   958  0628                     u761:
   959  0628  2E2F               	goto	l162
   960  0629                     u760:
   961  0629                     l1500:
   962                           
   963                           ;Proyecto2.c: 131: 
   964  0629  120A  118A  2022  120A  118A  	fcall	_terminal
   965                           
   966                           ;Proyecto2.c: 132:     PORTA = 0X00;
   967  062E  2E24               	goto	l1498
   968  062F                     l162:	
   969                           ;Proyecto2.c: 134:     PORTC = 0X00;
   970                           
   971                           
   972                           ;Proyecto2.c: 135:     PORTD = 0X00;
   973  062F  1283               	bcf	3,5	;RP0=0, select bank0
   974  0630  1303               	bcf	3,6	;RP1=0, select bank0
   975  0631  189F               	btfsc	31,1	;volatile
   976  0632  2E34               	goto	u771
   977  0633  2E35               	goto	u770
   978  0634                     u771:
   979  0634  2E24               	goto	l1498
   980  0635                     u770:
   981  0635                     l1502:
   982                           
   983                           ;Proyecto2.c: 136:     PORTE = 0x00;
   984  0635  0C1F               	rrf	31,w	;volatile
   985  0636  00AB               	movwf	??_main
   986  0637  0C2B               	rrf	??_main,w
   987  0638  390F               	andlw	15
   988  0639  3A00               	xorlw	0
   989  063A  1D03               	skipz
   990  063B  2E3D               	goto	u781
   991  063C  2E3E               	goto	u780
   992  063D                     u781:
   993  063D  2E43               	goto	l1506
   994  063E                     u780:
   995  063E                     l1504:
   996                           
   997                           ;Proyecto2.c: 137: 
   998  063E  081F               	movf	31,w	;volatile
   999  063F  39C3               	andlw	-61
  1000  0640  3804               	iorlw	4
  1001  0641  009F               	movwf	31	;volatile
  1002                           
  1003                           ;Proyecto2.c: 138: 
  1004  0642  2E5C               	goto	l1514
  1005  0643                     l1506:
  1006  0643  0C1F               	rrf	31,w	;volatile
  1007  0644  00AB               	movwf	??_main
  1008  0645  0C2B               	rrf	??_main,w
  1009  0646  390F               	andlw	15
  1010  0647  3A01               	xorlw	1
  1011  0648  1D03               	skipz
  1012  0649  2E4B               	goto	u791
  1013  064A  2E4C               	goto	u790
  1014  064B                     u791:
  1015  064B  2E51               	goto	l1510
  1016  064C                     u790:
  1017  064C                     l1508:
  1018                           
  1019                           ;Proyecto2.c: 140:     OSCCONbits.IRCF = 0b111;
  1020  064C  081F               	movf	31,w	;volatile
  1021  064D  39C3               	andlw	-61
  1022  064E  3808               	iorlw	8
  1023  064F  009F               	movwf	31	;volatile
  1024                           
  1025                           ;Proyecto2.c: 141: 
  1026  0650  2E5C               	goto	l1514
  1027  0651                     l1510:
  1028  0651  0C1F               	rrf	31,w	;volatile
  1029  0652  00AB               	movwf	??_main
  1030  0653  0C2B               	rrf	??_main,w
  1031  0654  390F               	andlw	15
  1032  0655  3A02               	xorlw	2
  1033  0656  1D03               	skipz
  1034  0657  2E59               	goto	u801
  1035  0658  2E5A               	goto	u800
  1036  0659                     u801:
  1037  0659  2E5C               	goto	l1514
  1038  065A                     u800:
  1039  065A                     l1512:
  1040                           
  1041                           ;Proyecto2.c: 143:     OPTION_REGbits.nRBPU=0;
  1042  065A  30C3               	movlw	-61
  1043  065B  059F               	andwf	31,f	;volatile
  1044  065C                     l1514:
  1045                           
  1046                           ;Proyecto2.c: 145:     WPUBbits.WPUB7 = 1;
  1047  065C  3041               	movlw	65
  1048  065D  1283               	bcf	3,5	;RP0=0, select bank0
  1049  065E  1303               	bcf	3,6	;RP1=0, select bank0
  1050  065F  00AB               	movwf	??_main
  1051  0660                     u817:
  1052  0660  0BAB               	decfsz	??_main,f
  1053  0661  2E60               	goto	u817
  1054  0662  2E63               	nop2
  1055  0663                     l1516:
  1056                           
  1057                           ;Proyecto2.c: 146:     WPUBbits.WPUB5 = 1;
  1058  0663  1283               	bcf	3,5	;RP0=0, select bank0
  1059  0664  1303               	bcf	3,6	;RP1=0, select bank0
  1060  0665  149F               	bsf	31,1	;volatile
  1061  0666  2E24               	goto	l1498
  1062  0667  120A  118A  280C   	ljmp	start
  1063  066A                     __end_of_main:
  1064                           
  1065                           	psect	text1
  1066  0022                     __ptext1:	
  1067 ;; *************** function _terminal *****************
  1068 ;; Defined at:
  1069 ;;		line 294 in file "Proyecto2.c"
  1070 ;; Parameters:    Size  Location     Type
  1071 ;;		None
  1072 ;; Auto vars:     Size  Location     Type
  1073 ;;		None
  1074 ;; Return value:  Size  Location     Type
  1075 ;;                  1    wreg      void 
  1076 ;; Registers used:
  1077 ;;		wreg, fsr0l, fsr0h, status,2, status,0, btemp+1, pclath, cstack
  1078 ;; Tracked objects:
  1079 ;;		On entry : 0/0
  1080 ;;		On exit  : 0/0
  1081 ;;		Unchanged: 0/0
  1082 ;; Data sizes:     COMMON   BANK0   BANK1   BANK3   BANK2
  1083 ;;      Params:         0       0       0       0       0
  1084 ;;      Locals:         0       0       0       0       0
  1085 ;;      Temps:          0       3       0       0       0
  1086 ;;      Totals:         0       3       0       0       0
  1087 ;;Total ram usage:        3 bytes
  1088 ;; Hardware stack levels used:    1
  1089 ;; Hardware stack levels required when called:    4
  1090 ;; This function calls:
  1091 ;;		_printf
  1092 ;; This function is called by:
  1093 ;;		_main
  1094 ;; This function uses a non-reentrant model
  1095 ;;
  1096                           
  1097                           
  1098                           ;psect for function _terminal
  1099  0022                     _terminal:
  1100  0022                     l1324:	
  1101                           ;incstack = 0
  1102                           ; Regs used in _terminal: [wreg-fsr0h+status,2+status,0+btemp+1+pclath+cstack]
  1103                           
  1104                           
  1105                           ;Proyecto2.c: 295:     _delay((unsigned long)((300)*(8000000/4000.0)));
  1106  0022  3004               	movlw	4
  1107  0023  1283               	bcf	3,5	;RP0=0, select bank0
  1108  0024  1303               	bcf	3,6	;RP1=0, select bank0
  1109  0025  00AA               	movwf	??_terminal+2
  1110  0026  300C               	movlw	12
  1111  0027  00A9               	movwf	??_terminal+1
  1112  0028  3033               	movlw	51
  1113  0029  00A8               	movwf	??_terminal
  1114  002A                     u827:
  1115  002A  0BA8               	decfsz	??_terminal,f
  1116  002B  282A               	goto	u827
  1117  002C  0BA9               	decfsz	??_terminal+1,f
  1118  002D  282A               	goto	u827
  1119  002E  0BAA               	decfsz	??_terminal+2,f
  1120  002F  282A               	goto	u827
  1121  0030                     l1326:
  1122                           
  1123                           ;Proyecto2.c: 296:     printf("\r Escoge una opcion, chavo: \r");
  1124  0030  304B               	movlw	low (STR_1| (0+32768))
  1125  0031  1283               	bcf	3,5	;RP0=0, select bank0
  1126  0032  1303               	bcf	3,6	;RP1=0, select bank0
  1127  0033  00A1               	movwf	printf@f
  1128  0034  3083               	movlw	high (STR_1| (0+32768))
  1129  0035  00A2               	movwf	printf@f+1
  1130  0036  120A  118A  266A  120A  118A  	fcall	_printf
  1131  003B                     l1328:
  1132                           
  1133                           ;Proyecto2.c: 297:     _delay((unsigned long)((300)*(8000000/4000.0)));
  1134  003B  3004               	movlw	4
  1135  003C  1283               	bcf	3,5	;RP0=0, select bank0
  1136  003D  1303               	bcf	3,6	;RP1=0, select bank0
  1137  003E  00AA               	movwf	??_terminal+2
  1138  003F  300C               	movlw	12
  1139  0040  00A9               	movwf	??_terminal+1
  1140  0041  3033               	movlw	51
  1141  0042  00A8               	movwf	??_terminal
  1142  0043                     u837:
  1143  0043  0BA8               	decfsz	??_terminal,f
  1144  0044  2843               	goto	u837
  1145  0045  0BA9               	decfsz	??_terminal+1,f
  1146  0046  2843               	goto	u837
  1147  0047  0BAA               	decfsz	??_terminal+2,f
  1148  0048  2843               	goto	u837
  1149                           
  1150                           ;Proyecto2.c: 298:     printf(" (1) Controlar motores: \r");
  1151  0049  30A1               	movlw	low (STR_2| (0+32768))
  1152  004A  1283               	bcf	3,5	;RP0=0, select bank0
  1153  004B  1303               	bcf	3,6	;RP1=0, select bank0
  1154  004C  00A1               	movwf	printf@f
  1155  004D  3083               	movlw	high (STR_2| (0+32768))
  1156  004E  00A2               	movwf	printf@f+1
  1157  004F  120A  118A  266A  120A  118A  	fcall	_printf
  1158  0054                     l1330:
  1159                           
  1160                           ;Proyecto2.c: 299:     _delay((unsigned long)((300)*(8000000/4000.0)));
  1161  0054  3004               	movlw	4
  1162  0055  1283               	bcf	3,5	;RP0=0, select bank0
  1163  0056  1303               	bcf	3,6	;RP1=0, select bank0
  1164  0057  00AA               	movwf	??_terminal+2
  1165  0058  300C               	movlw	12
  1166  0059  00A9               	movwf	??_terminal+1
  1167  005A  3033               	movlw	51
  1168  005B  00A8               	movwf	??_terminal
  1169  005C                     u847:
  1170  005C  0BA8               	decfsz	??_terminal,f
  1171  005D  285C               	goto	u847
  1172  005E  0BA9               	decfsz	??_terminal+1,f
  1173  005F  285C               	goto	u847
  1174  0060  0BAA               	decfsz	??_terminal+2,f
  1175  0061  285C               	goto	u847
  1176  0062                     l1332:
  1177                           
  1178                           ;Proyecto2.c: 300:     printf(" (2) ya no, ya no quiero hacer nada UnU: \r");
  1179  0062  3000               	movlw	low (STR_3| (0+32768))
  1180  0063  1283               	bcf	3,5	;RP0=0, select bank0
  1181  0064  1303               	bcf	3,6	;RP1=0, select bank0
  1182  0065  00A1               	movwf	printf@f
  1183  0066  3083               	movlw	high (STR_3| (0+32768))
  1184  0067  00A2               	movwf	printf@f+1
  1185  0068  120A  118A  266A  120A  118A  	fcall	_printf
  1186  006D                     l196:	
  1187                           ;Proyecto2.c: 302:     while (RCIF == 0);
  1188                           
  1189  006D  1283               	bcf	3,5	;RP0=0, select bank0
  1190  006E  1303               	bcf	3,6	;RP1=0, select bank0
  1191  006F  1E8C               	btfss	12,5	;volatile
  1192  0070  2872               	goto	u451
  1193  0071  2873               	goto	u450
  1194  0072                     u451:
  1195  0072  286D               	goto	l196
  1196  0073                     u450:
  1197  0073                     l1334:
  1198                           
  1199                           ;Proyecto2.c: 305:     if (RCREG == '1') {
  1200  0073  3031               	movlw	49
  1201  0074  061A               	xorwf	26,w	;volatile
  1202  0075  1D03               	btfss	3,2
  1203  0076  2878               	goto	u461
  1204  0077  2879               	goto	u460
  1205  0078                     u461:
  1206  0078  2A5D               	goto	l1426
  1207  0079                     u460:
  1208  0079                     l1336:
  1209  0079                     l1338:	
  1210                           ;Proyecto2.c: 306:         _delay((unsigned long)((00)*(8000000/4000.0)));
  1211                           
  1212                           
  1213                           ;Proyecto2.c: 307:         printf("\r\rQue motor desea controlar:");
  1214  0079  3069               	movlw	low (STR_4| (0+32768))
  1215  007A  1283               	bcf	3,5	;RP0=0, select bank0
  1216  007B  1303               	bcf	3,6	;RP1=0, select bank0
  1217  007C  00A1               	movwf	printf@f
  1218  007D  3083               	movlw	high (STR_4| (0+32768))
  1219  007E  00A2               	movwf	printf@f+1
  1220  007F  120A  118A  266A  120A  118A  	fcall	_printf
  1221  0084                     l1340:
  1222                           
  1223                           ;Proyecto2.c: 308:         _delay((unsigned long)((100)*(8000000/4000.0)));
  1224  0084  3002               	movlw	2
  1225  0085  1283               	bcf	3,5	;RP0=0, select bank0
  1226  0086  1303               	bcf	3,6	;RP1=0, select bank0
  1227  0087  00AA               	movwf	??_terminal+2
  1228  0088  3004               	movlw	4
  1229  0089  00A9               	movwf	??_terminal+1
  1230  008A  30B9               	movlw	185
  1231  008B  00A8               	movwf	??_terminal
  1232  008C                     u857:
  1233  008C  0BA8               	decfsz	??_terminal,f
  1234  008D  288C               	goto	u857
  1235  008E  0BA9               	decfsz	??_terminal+1,f
  1236  008F  288C               	goto	u857
  1237  0090  0BAA               	decfsz	??_terminal+2,f
  1238  0091  288C               	goto	u857
  1239  0092  2893               	nop2
  1240  0093                     l1342:
  1241                           
  1242                           ;Proyecto2.c: 309:         printf("\r\r (1)Giro");
  1243  0093  30AC               	movlw	low (STR_5| (0+32768))
  1244  0094  1283               	bcf	3,5	;RP0=0, select bank0
  1245  0095  1303               	bcf	3,6	;RP1=0, select bank0
  1246  0096  00A1               	movwf	printf@f
  1247  0097  3084               	movlw	high (STR_5| (0+32768))
  1248  0098  00A2               	movwf	printf@f+1
  1249  0099  120A  118A  266A  120A  118A  	fcall	_printf
  1250                           
  1251                           ;Proyecto2.c: 310:         _delay((unsigned long)((100)*(8000000/4000.0)));
  1252  009E  3002               	movlw	2
  1253  009F  1283               	bcf	3,5	;RP0=0, select bank0
  1254  00A0  1303               	bcf	3,6	;RP1=0, select bank0
  1255  00A1  00AA               	movwf	??_terminal+2
  1256  00A2  3004               	movlw	4
  1257  00A3  00A9               	movwf	??_terminal+1
  1258  00A4  30B9               	movlw	185
  1259  00A5  00A8               	movwf	??_terminal
  1260  00A6                     u867:
  1261  00A6  0BA8               	decfsz	??_terminal,f
  1262  00A7  28A6               	goto	u867
  1263  00A8  0BA9               	decfsz	??_terminal+1,f
  1264  00A9  28A6               	goto	u867
  1265  00AA  0BAA               	decfsz	??_terminal+2,f
  1266  00AB  28A6               	goto	u867
  1267  00AC  28AD               	nop2
  1268  00AD                     l1344:
  1269                           
  1270                           ;Proyecto2.c: 311:         printf("\r\r (2)Modo del aleron");
  1271  00AD  3008               	movlw	low (STR_6| (0+32768))
  1272  00AE  1283               	bcf	3,5	;RP0=0, select bank0
  1273  00AF  1303               	bcf	3,6	;RP1=0, select bank0
  1274  00B0  00A1               	movwf	printf@f
  1275  00B1  3084               	movlw	high (STR_6| (0+32768))
  1276  00B2  00A2               	movwf	printf@f+1
  1277  00B3  120A  118A  266A  120A  118A  	fcall	_printf
  1278  00B8                     l1346:
  1279                           
  1280                           ;Proyecto2.c: 312:         _delay((unsigned long)((100)*(8000000/4000.0)));
  1281  00B8  3002               	movlw	2
  1282  00B9  1283               	bcf	3,5	;RP0=0, select bank0
  1283  00BA  1303               	bcf	3,6	;RP1=0, select bank0
  1284  00BB  00AA               	movwf	??_terminal+2
  1285  00BC  3004               	movlw	4
  1286  00BD  00A9               	movwf	??_terminal+1
  1287  00BE  30B9               	movlw	185
  1288  00BF  00A8               	movwf	??_terminal
  1289  00C0                     u877:
  1290  00C0  0BA8               	decfsz	??_terminal,f
  1291  00C1  28C0               	goto	u877
  1292  00C2  0BA9               	decfsz	??_terminal+1,f
  1293  00C3  28C0               	goto	u877
  1294  00C4  0BAA               	decfsz	??_terminal+2,f
  1295  00C5  28C0               	goto	u877
  1296  00C6  28C7               	nop2
  1297                           
  1298                           ;Proyecto2.c: 313:         printf("\r\r (3) Nitro, la velocidad pues");
  1299  00C7  302B               	movlw	low (STR_7| (0+32768))
  1300  00C8  1283               	bcf	3,5	;RP0=0, select bank0
  1301  00C9  1303               	bcf	3,6	;RP1=0, select bank0
  1302  00CA  00A1               	movwf	printf@f
  1303  00CB  3083               	movlw	high (STR_7| (0+32768))
  1304  00CC  00A2               	movwf	printf@f+1
  1305  00CD  120A  118A  266A  120A  118A  	fcall	_printf
  1306  00D2                     l200:	
  1307                           ;Proyecto2.c: 315:         while (RCIF == 0);
  1308                           
  1309  00D2  1283               	bcf	3,5	;RP0=0, select bank0
  1310  00D3  1303               	bcf	3,6	;RP1=0, select bank0
  1311  00D4  1E8C               	btfss	12,5	;volatile
  1312  00D5  28D7               	goto	u471
  1313  00D6  28D8               	goto	u470
  1314  00D7                     u471:
  1315  00D7  28D2               	goto	l200
  1316  00D8                     u470:
  1317  00D8                     l1348:
  1318                           
  1319                           ;Proyecto2.c: 317:         if (RCREG == '1') {
  1320  00D8  3031               	movlw	49
  1321  00D9  061A               	xorwf	26,w	;volatile
  1322  00DA  1D03               	btfss	3,2
  1323  00DB  28DD               	goto	u481
  1324  00DC  28DE               	goto	u480
  1325  00DD                     u481:
  1326  00DD  2958               	goto	l1374
  1327  00DE                     u480:
  1328  00DE                     l1350:
  1329  00DE                     l1352:	
  1330                           ;Proyecto2.c: 318:             _delay((unsigned long)((00)*(8000000/4000.0)));
  1331                           
  1332                           
  1333                           ;Proyecto2.c: 319:             printf("\r\r pa donde queres girar?:");
  1334  00DE  3086               	movlw	low (STR_8| (0+32768))
  1335  00DF  1283               	bcf	3,5	;RP0=0, select bank0
  1336  00E0  1303               	bcf	3,6	;RP1=0, select bank0
  1337  00E1  00A1               	movwf	printf@f
  1338  00E2  3083               	movlw	high (STR_8| (0+32768))
  1339  00E3  00A2               	movwf	printf@f+1
  1340  00E4  120A  118A  266A  120A  118A  	fcall	_printf
  1341  00E9                     l1354:
  1342                           
  1343                           ;Proyecto2.c: 320:             _delay((unsigned long)((100)*(8000000/4000.0)));
  1344  00E9  3002               	movlw	2
  1345  00EA  1283               	bcf	3,5	;RP0=0, select bank0
  1346  00EB  1303               	bcf	3,6	;RP1=0, select bank0
  1347  00EC  00AA               	movwf	??_terminal+2
  1348  00ED  3004               	movlw	4
  1349  00EE  00A9               	movwf	??_terminal+1
  1350  00EF  30B9               	movlw	185
  1351  00F0  00A8               	movwf	??_terminal
  1352  00F1                     u887:
  1353  00F1  0BA8               	decfsz	??_terminal,f
  1354  00F2  28F1               	goto	u887
  1355  00F3  0BA9               	decfsz	??_terminal+1,f
  1356  00F4  28F1               	goto	u887
  1357  00F5  0BAA               	decfsz	??_terminal+2,f
  1358  00F6  28F1               	goto	u887
  1359  00F7  28F8               	nop2
  1360  00F8                     l1356:
  1361                           
  1362                           ;Proyecto2.c: 321:             printf("\r\r (a)Derecha");
  1363  00F8  3075               	movlw	low (STR_9| (0+32768))
  1364  00F9  1283               	bcf	3,5	;RP0=0, select bank0
  1365  00FA  1303               	bcf	3,6	;RP1=0, select bank0
  1366  00FB  00A1               	movwf	printf@f
  1367  00FC  3084               	movlw	high (STR_9| (0+32768))
  1368  00FD  00A2               	movwf	printf@f+1
  1369  00FE  120A  118A  266A  120A  118A  	fcall	_printf
  1370                           
  1371                           ;Proyecto2.c: 322:             _delay((unsigned long)((100)*(8000000/4000.0)));
  1372  0103  3002               	movlw	2
  1373  0104  1283               	bcf	3,5	;RP0=0, select bank0
  1374  0105  1303               	bcf	3,6	;RP1=0, select bank0
  1375  0106  00AA               	movwf	??_terminal+2
  1376  0107  3004               	movlw	4
  1377  0108  00A9               	movwf	??_terminal+1
  1378  0109  30B9               	movlw	185
  1379  010A  00A8               	movwf	??_terminal
  1380  010B                     u897:
  1381  010B  0BA8               	decfsz	??_terminal,f
  1382  010C  290B               	goto	u897
  1383  010D  0BA9               	decfsz	??_terminal+1,f
  1384  010E  290B               	goto	u897
  1385  010F  0BAA               	decfsz	??_terminal+2,f
  1386  0110  290B               	goto	u897
  1387  0111  2912               	nop2
  1388  0112                     l1358:
  1389                           
  1390                           ;Proyecto2.c: 323:             printf("\r\r (b)Izquierda");
  1391  0112  3056               	movlw	low (STR_10| (0+32768))
  1392  0113  1283               	bcf	3,5	;RP0=0, select bank0
  1393  0114  1303               	bcf	3,6	;RP1=0, select bank0
  1394  0115  00A1               	movwf	printf@f
  1395  0116  3084               	movlw	high (STR_10| (0+32768))
  1396  0117  00A2               	movwf	printf@f+1
  1397  0118  120A  118A  266A  120A  118A  	fcall	_printf
  1398  011D                     l1360:
  1399                           
  1400                           ;Proyecto2.c: 324:             _delay((unsigned long)((100)*(8000000/4000.0)));
  1401  011D  3002               	movlw	2
  1402  011E  1283               	bcf	3,5	;RP0=0, select bank0
  1403  011F  1303               	bcf	3,6	;RP1=0, select bank0
  1404  0120  00AA               	movwf	??_terminal+2
  1405  0121  3004               	movlw	4
  1406  0122  00A9               	movwf	??_terminal+1
  1407  0123  30B9               	movlw	185
  1408  0124  00A8               	movwf	??_terminal
  1409  0125                     u907:
  1410  0125  0BA8               	decfsz	??_terminal,f
  1411  0126  2925               	goto	u907
  1412  0127  0BA9               	decfsz	??_terminal+1,f
  1413  0128  2925               	goto	u907
  1414  0129  0BAA               	decfsz	??_terminal+2,f
  1415  012A  2925               	goto	u907
  1416  012B  292C               	nop2
  1417                           
  1418                           ;Proyecto2.c: 325:             printf("\r\r (c)Centro");
  1419  012C  309F               	movlw	low (STR_11| (0+32768))
  1420  012D  1283               	bcf	3,5	;RP0=0, select bank0
  1421  012E  1303               	bcf	3,6	;RP1=0, select bank0
  1422  012F  00A1               	movwf	printf@f
  1423  0130  3084               	movlw	high (STR_11| (0+32768))
  1424  0131  00A2               	movwf	printf@f+1
  1425  0132  120A  118A  266A  120A  118A  	fcall	_printf
  1426  0137                     l204:	
  1427                           ;Proyecto2.c: 327:             while (RCIF == 0);
  1428                           
  1429  0137  1283               	bcf	3,5	;RP0=0, select bank0
  1430  0138  1303               	bcf	3,6	;RP1=0, select bank0
  1431  0139  1E8C               	btfss	12,5	;volatile
  1432  013A  293C               	goto	u491
  1433  013B  293D               	goto	u490
  1434  013C                     u491:
  1435  013C  2937               	goto	l204
  1436  013D                     u490:
  1437  013D                     l1362:
  1438                           
  1439                           ;Proyecto2.c: 329:             if (RCREG == 'a') {
  1440  013D  3061               	movlw	97
  1441  013E  061A               	xorwf	26,w	;volatile
  1442  013F  1D03               	btfss	3,2
  1443  0140  2942               	goto	u501
  1444  0141  2943               	goto	u500
  1445  0142                     u501:
  1446  0142  2946               	goto	l1366
  1447  0143                     u500:
  1448  0143                     l1364:
  1449                           
  1450                           ;Proyecto2.c: 330:                 CCPR1L = (250 >> 1) + 125;
  1451  0143  30FA               	movlw	250
  1452  0144  0095               	movwf	21	;volatile
  1453                           
  1454                           ;Proyecto2.c: 331:             }
  1455  0145  2958               	goto	l1374
  1456  0146                     l1366:
  1457  0146  3062               	movlw	98
  1458  0147  061A               	xorwf	26,w	;volatile
  1459  0148  1D03               	btfss	3,2
  1460  0149  294B               	goto	u511
  1461  014A  294C               	goto	u510
  1462  014B                     u511:
  1463  014B  294F               	goto	l1370
  1464  014C                     u510:
  1465  014C                     l1368:
  1466                           
  1467                           ;Proyecto2.c: 334:                 CCPR1L = (0 >> 1) + 125;
  1468  014C  307D               	movlw	125
  1469  014D  0095               	movwf	21	;volatile
  1470                           
  1471                           ;Proyecto2.c: 335:             }
  1472  014E  2958               	goto	l1374
  1473  014F                     l1370:
  1474  014F  3063               	movlw	99
  1475  0150  061A               	xorwf	26,w	;volatile
  1476  0151  1D03               	btfss	3,2
  1477  0152  2954               	goto	u521
  1478  0153  2955               	goto	u520
  1479  0154                     u521:
  1480  0154  2958               	goto	l208
  1481  0155                     u520:
  1482  0155                     l1372:
  1483                           
  1484                           ;Proyecto2.c: 338:                 CCPR1L = (127 >> 1) + 125;
  1485  0155  30BC               	movlw	188
  1486  0156  0095               	movwf	21	;volatile
  1487                           
  1488                           ;Proyecto2.c: 339:             }
  1489  0157  2958               	goto	l1374
  1490  0158                     l208:
  1491  0158                     l1374:
  1492                           
  1493                           ;Proyecto2.c: 346:         if (RCREG == '2') {
  1494  0158  3032               	movlw	50
  1495  0159  061A               	xorwf	26,w	;volatile
  1496  015A  1D03               	btfss	3,2
  1497  015B  295D               	goto	u531
  1498  015C  295E               	goto	u530
  1499  015D                     u531:
  1500  015D  29D8               	goto	l1400
  1501  015E                     u530:
  1502  015E                     l1376:
  1503  015E                     l1378:	
  1504                           ;Proyecto2.c: 347:             _delay((unsigned long)((00)*(8000000/4000.0)));
  1505                           
  1506                           
  1507                           ;Proyecto2.c: 348:             printf("\r\r modo del aleron:");
  1508  015E  301E               	movlw	low (STR_12| (0+32768))
  1509  015F  1283               	bcf	3,5	;RP0=0, select bank0
  1510  0160  1303               	bcf	3,6	;RP1=0, select bank0
  1511  0161  00A1               	movwf	printf@f
  1512  0162  3084               	movlw	high (STR_12| (0+32768))
  1513  0163  00A2               	movwf	printf@f+1
  1514  0164  120A  118A  266A  120A  118A  	fcall	_printf
  1515  0169                     l1380:
  1516                           
  1517                           ;Proyecto2.c: 349:             _delay((unsigned long)((100)*(8000000/4000.0)));
  1518  0169  3002               	movlw	2
  1519  016A  1283               	bcf	3,5	;RP0=0, select bank0
  1520  016B  1303               	bcf	3,6	;RP1=0, select bank0
  1521  016C  00AA               	movwf	??_terminal+2
  1522  016D  3004               	movlw	4
  1523  016E  00A9               	movwf	??_terminal+1
  1524  016F  30B9               	movlw	185
  1525  0170  00A8               	movwf	??_terminal
  1526  0171                     u917:
  1527  0171  0BA8               	decfsz	??_terminal,f
  1528  0172  2971               	goto	u917
  1529  0173  0BA9               	decfsz	??_terminal+1,f
  1530  0174  2971               	goto	u917
  1531  0175  0BAA               	decfsz	??_terminal+2,f
  1532  0176  2971               	goto	u917
  1533  0177  2978               	nop2
  1534  0178                     l1382:
  1535                           
  1536                           ;Proyecto2.c: 350:             printf("\r\r (a) carrera");
  1537  0178  3066               	movlw	low (STR_13| (0+32768))
  1538  0179  1283               	bcf	3,5	;RP0=0, select bank0
  1539  017A  1303               	bcf	3,6	;RP1=0, select bank0
  1540  017B  00A1               	movwf	printf@f
  1541  017C  3084               	movlw	high (STR_13| (0+32768))
  1542  017D  00A2               	movwf	printf@f+1
  1543  017E  120A  118A  266A  120A  118A  	fcall	_printf
  1544                           
  1545                           ;Proyecto2.c: 351:             _delay((unsigned long)((100)*(8000000/4000.0)));
  1546  0183  3002               	movlw	2
  1547  0184  1283               	bcf	3,5	;RP0=0, select bank0
  1548  0185  1303               	bcf	3,6	;RP1=0, select bank0
  1549  0186  00AA               	movwf	??_terminal+2
  1550  0187  3004               	movlw	4
  1551  0188  00A9               	movwf	??_terminal+1
  1552  0189  30B9               	movlw	185
  1553  018A  00A8               	movwf	??_terminal
  1554  018B                     u927:
  1555  018B  0BA8               	decfsz	??_terminal,f
  1556  018C  298B               	goto	u927
  1557  018D  0BA9               	decfsz	??_terminal+1,f
  1558  018E  298B               	goto	u927
  1559  018F  0BAA               	decfsz	??_terminal+2,f
  1560  0190  298B               	goto	u927
  1561  0191  2992               	nop2
  1562  0192                     l1384:
  1563                           
  1564                           ;Proyecto2.c: 352:             printf("\r\r (b) frando");
  1565  0192  3091               	movlw	low (STR_14| (0+32768))
  1566  0193  1283               	bcf	3,5	;RP0=0, select bank0
  1567  0194  1303               	bcf	3,6	;RP1=0, select bank0
  1568  0195  00A1               	movwf	printf@f
  1569  0196  3084               	movlw	high (STR_14| (0+32768))
  1570  0197  00A2               	movwf	printf@f+1
  1571  0198  120A  118A  266A  120A  118A  	fcall	_printf
  1572  019D                     l1386:
  1573                           
  1574                           ;Proyecto2.c: 353:             _delay((unsigned long)((100)*(8000000/4000.0)));
  1575  019D  3002               	movlw	2
  1576  019E  1283               	bcf	3,5	;RP0=0, select bank0
  1577  019F  1303               	bcf	3,6	;RP1=0, select bank0
  1578  01A0  00AA               	movwf	??_terminal+2
  1579  01A1  3004               	movlw	4
  1580  01A2  00A9               	movwf	??_terminal+1
  1581  01A3  30B9               	movlw	185
  1582  01A4  00A8               	movwf	??_terminal
  1583  01A5                     u937:
  1584  01A5  0BA8               	decfsz	??_terminal,f
  1585  01A6  29A5               	goto	u937
  1586  01A7  0BA9               	decfsz	??_terminal+1,f
  1587  01A8  29A5               	goto	u937
  1588  01A9  0BAA               	decfsz	??_terminal+2,f
  1589  01AA  29A5               	goto	u937
  1590  01AB  29AC               	nop2
  1591                           
  1592                           ;Proyecto2.c: 354:             printf("\r\r (c) normal");
  1593  01AC  3083               	movlw	low (STR_15| (0+32768))
  1594  01AD  1283               	bcf	3,5	;RP0=0, select bank0
  1595  01AE  1303               	bcf	3,6	;RP1=0, select bank0
  1596  01AF  00A1               	movwf	printf@f
  1597  01B0  3084               	movlw	high (STR_15| (0+32768))
  1598  01B1  00A2               	movwf	printf@f+1
  1599  01B2  120A  118A  266A  120A  118A  	fcall	_printf
  1600  01B7                     l214:	
  1601                           ;Proyecto2.c: 356:             while (RCIF == 0);
  1602                           
  1603  01B7  1283               	bcf	3,5	;RP0=0, select bank0
  1604  01B8  1303               	bcf	3,6	;RP1=0, select bank0
  1605  01B9  1E8C               	btfss	12,5	;volatile
  1606  01BA  29BC               	goto	u541
  1607  01BB  29BD               	goto	u540
  1608  01BC                     u541:
  1609  01BC  29B7               	goto	l214
  1610  01BD                     u540:
  1611  01BD                     l1388:
  1612                           
  1613                           ;Proyecto2.c: 358:             if (RCREG == 'a') {
  1614  01BD  3061               	movlw	97
  1615  01BE  061A               	xorwf	26,w	;volatile
  1616  01BF  1D03               	btfss	3,2
  1617  01C0  29C2               	goto	u551
  1618  01C1  29C3               	goto	u550
  1619  01C2                     u551:
  1620  01C2  29C6               	goto	l1392
  1621  01C3                     u550:
  1622  01C3                     l1390:
  1623                           
  1624                           ;Proyecto2.c: 359:                 CCPR2L = (250 >> 1) + 125;
  1625  01C3  30FA               	movlw	250
  1626  01C4  009B               	movwf	27	;volatile
  1627                           
  1628                           ;Proyecto2.c: 360:             }
  1629  01C5  29D8               	goto	l1400
  1630  01C6                     l1392:
  1631  01C6  3062               	movlw	98
  1632  01C7  061A               	xorwf	26,w	;volatile
  1633  01C8  1D03               	btfss	3,2
  1634  01C9  29CB               	goto	u561
  1635  01CA  29CC               	goto	u560
  1636  01CB                     u561:
  1637  01CB  29CF               	goto	l1396
  1638  01CC                     u560:
  1639  01CC                     l1394:
  1640                           
  1641                           ;Proyecto2.c: 363:                 CCPR2L = (0 >> 1) + 125;
  1642  01CC  307D               	movlw	125
  1643  01CD  009B               	movwf	27	;volatile
  1644                           
  1645                           ;Proyecto2.c: 364:             }
  1646  01CE  29D8               	goto	l1400
  1647  01CF                     l1396:
  1648  01CF  3063               	movlw	99
  1649  01D0  061A               	xorwf	26,w	;volatile
  1650  01D1  1D03               	btfss	3,2
  1651  01D2  29D4               	goto	u571
  1652  01D3  29D5               	goto	u570
  1653  01D4                     u571:
  1654  01D4  29D8               	goto	l218
  1655  01D5                     u570:
  1656  01D5                     l1398:
  1657                           
  1658                           ;Proyecto2.c: 367:                 CCPR2L = (127 >> 1) + 125;
  1659  01D5  30BC               	movlw	188
  1660  01D6  009B               	movwf	27	;volatile
  1661                           
  1662                           ;Proyecto2.c: 368:             }
  1663  01D7  29D8               	goto	l1400
  1664  01D8                     l218:
  1665  01D8                     l1400:
  1666                           
  1667                           ;Proyecto2.c: 375:         if (RCREG == '3') {
  1668  01D8  3033               	movlw	51
  1669  01D9  061A               	xorwf	26,w	;volatile
  1670  01DA  1D03               	btfss	3,2
  1671  01DB  29DD               	goto	u581
  1672  01DC  29DE               	goto	u580
  1673  01DD                     u581:
  1674  01DD  2A7D               	goto	l236
  1675  01DE                     u580:
  1676  01DE                     l1402:
  1677  01DE                     l1404:	
  1678                           ;Proyecto2.c: 376:             _delay((unsigned long)((00)*(8000000/4000.0)));
  1679                           
  1680                           
  1681                           ;Proyecto2.c: 377:             printf("\r\r Que velocidad quiere?:");
  1682  01DE  30BB               	movlw	low (STR_16| (0+32768))
  1683  01DF  1283               	bcf	3,5	;RP0=0, select bank0
  1684  01E0  1303               	bcf	3,6	;RP1=0, select bank0
  1685  01E1  00A1               	movwf	printf@f
  1686  01E2  3083               	movlw	high (STR_16| (0+32768))
  1687  01E3  00A2               	movwf	printf@f+1
  1688  01E4  120A  118A  266A  120A  118A  	fcall	_printf
  1689  01E9                     l1406:
  1690                           
  1691                           ;Proyecto2.c: 378:             _delay((unsigned long)((100)*(8000000/4000.0)));
  1692  01E9  3002               	movlw	2
  1693  01EA  1283               	bcf	3,5	;RP0=0, select bank0
  1694  01EB  1303               	bcf	3,6	;RP1=0, select bank0
  1695  01EC  00AA               	movwf	??_terminal+2
  1696  01ED  3004               	movlw	4
  1697  01EE  00A9               	movwf	??_terminal+1
  1698  01EF  30B9               	movlw	185
  1699  01F0  00A8               	movwf	??_terminal
  1700  01F1                     u947:
  1701  01F1  0BA8               	decfsz	??_terminal,f
  1702  01F2  29F1               	goto	u947
  1703  01F3  0BA9               	decfsz	??_terminal+1,f
  1704  01F4  29F1               	goto	u947
  1705  01F5  0BAA               	decfsz	??_terminal+2,f
  1706  01F6  29F1               	goto	u947
  1707  01F7  29F8               	nop2
  1708  01F8                     l1408:
  1709                           
  1710                           ;Proyecto2.c: 379:             printf("\r\r (a) rapidos y furiosos");
  1711  01F8  30D5               	movlw	low (STR_17| (0+32768))
  1712  01F9  1283               	bcf	3,5	;RP0=0, select bank0
  1713  01FA  1303               	bcf	3,6	;RP1=0, select bank0
  1714  01FB  00A1               	movwf	printf@f
  1715  01FC  3083               	movlw	high (STR_17| (0+32768))
  1716  01FD  00A2               	movwf	printf@f+1
  1717  01FE  120A  118A  266A  120A  118A  	fcall	_printf
  1718                           
  1719                           ;Proyecto2.c: 380:             _delay((unsigned long)((100)*(8000000/4000.0)));
  1720  0203  3002               	movlw	2
  1721  0204  1283               	bcf	3,5	;RP0=0, select bank0
  1722  0205  1303               	bcf	3,6	;RP1=0, select bank0
  1723  0206  00AA               	movwf	??_terminal+2
  1724  0207  3004               	movlw	4
  1725  0208  00A9               	movwf	??_terminal+1
  1726  0209  30B9               	movlw	185
  1727  020A  00A8               	movwf	??_terminal
  1728  020B                     u957:
  1729  020B  0BA8               	decfsz	??_terminal,f
  1730  020C  2A0B               	goto	u957
  1731  020D  0BA9               	decfsz	??_terminal+1,f
  1732  020E  2A0B               	goto	u957
  1733  020F  0BAA               	decfsz	??_terminal+2,f
  1734  0210  2A0B               	goto	u957
  1735  0211  2A12               	nop2
  1736  0212                     l1410:
  1737                           
  1738                           ;Proyecto2.c: 381:             printf("\r\r (b) jue madre, frenar");
  1739  0212  30EF               	movlw	low (STR_18| (0+32768))
  1740  0213  1283               	bcf	3,5	;RP0=0, select bank0
  1741  0214  1303               	bcf	3,6	;RP1=0, select bank0
  1742  0215  00A1               	movwf	printf@f
  1743  0216  3083               	movlw	high (STR_18| (0+32768))
  1744  0217  00A2               	movwf	printf@f+1
  1745  0218  120A  118A  266A  120A  118A  	fcall	_printf
  1746  021D                     l1412:
  1747                           
  1748                           ;Proyecto2.c: 382:             _delay((unsigned long)((100)*(8000000/4000.0)));
  1749  021D  3002               	movlw	2
  1750  021E  1283               	bcf	3,5	;RP0=0, select bank0
  1751  021F  1303               	bcf	3,6	;RP1=0, select bank0
  1752  0220  00AA               	movwf	??_terminal+2
  1753  0221  3004               	movlw	4
  1754  0222  00A9               	movwf	??_terminal+1
  1755  0223  30B9               	movlw	185
  1756  0224  00A8               	movwf	??_terminal
  1757  0225                     u967:
  1758  0225  0BA8               	decfsz	??_terminal,f
  1759  0226  2A25               	goto	u967
  1760  0227  0BA9               	decfsz	??_terminal+1,f
  1761  0228  2A25               	goto	u967
  1762  0229  0BAA               	decfsz	??_terminal+2,f
  1763  022A  2A25               	goto	u967
  1764  022B  2A2C               	nop2
  1765                           
  1766                           ;Proyecto2.c: 383:             printf("\r\r (c)meh, normal");
  1767  022C  3044               	movlw	low (STR_19| (0+32768))
  1768  022D  1283               	bcf	3,5	;RP0=0, select bank0
  1769  022E  1303               	bcf	3,6	;RP1=0, select bank0
  1770  022F  00A1               	movwf	printf@f
  1771  0230  3084               	movlw	high (STR_19| (0+32768))
  1772  0231  00A2               	movwf	printf@f+1
  1773  0232  120A  118A  266A  120A  118A  	fcall	_printf
  1774  0237                     l224:	
  1775                           ;Proyecto2.c: 385:             while (RCIF == 0);
  1776                           
  1777  0237  1283               	bcf	3,5	;RP0=0, select bank0
  1778  0238  1303               	bcf	3,6	;RP1=0, select bank0
  1779  0239  1E8C               	btfss	12,5	;volatile
  1780  023A  2A3C               	goto	u591
  1781  023B  2A3D               	goto	u590
  1782  023C                     u591:
  1783  023C  2A37               	goto	l224
  1784  023D                     u590:
  1785  023D                     l1414:
  1786                           
  1787                           ;Proyecto2.c: 387:             if (RCREG == 'a') {
  1788  023D  3061               	movlw	97
  1789  023E  061A               	xorwf	26,w	;volatile
  1790  023F  1D03               	btfss	3,2
  1791  0240  2A42               	goto	u601
  1792  0241  2A43               	goto	u600
  1793  0242                     u601:
  1794  0242  2A48               	goto	l1418
  1795  0243                     u600:
  1796  0243                     l1416:
  1797                           
  1798                           ;Proyecto2.c: 388:                 valor_ADC = 255;
  1799  0243  30FF               	movlw	255
  1800  0244  00AC               	movwf	_valor_ADC
  1801  0245  3000               	movlw	0
  1802  0246  00AD               	movwf	_valor_ADC+1
  1803                           
  1804                           ;Proyecto2.c: 389:             }
  1805  0247  2A7D               	goto	l236
  1806  0248                     l1418:
  1807  0248  3062               	movlw	98
  1808  0249  061A               	xorwf	26,w	;volatile
  1809  024A  1D03               	btfss	3,2
  1810  024B  2A4D               	goto	u611
  1811  024C  2A4E               	goto	u610
  1812  024D                     u611:
  1813  024D  2A51               	goto	l1422
  1814  024E                     u610:
  1815  024E                     l1420:
  1816                           
  1817                           ;Proyecto2.c: 392:                 valor_ADC = 0;
  1818  024E  01AC               	clrf	_valor_ADC
  1819  024F  01AD               	clrf	_valor_ADC+1
  1820                           
  1821                           ;Proyecto2.c: 393:             }
  1822  0250  2A7D               	goto	l236
  1823  0251                     l1422:
  1824  0251  3063               	movlw	99
  1825  0252  061A               	xorwf	26,w	;volatile
  1826  0253  1D03               	btfss	3,2
  1827  0254  2A56               	goto	u621
  1828  0255  2A57               	goto	u620
  1829  0256                     u621:
  1830  0256  2A5C               	goto	l228
  1831  0257                     u620:
  1832  0257                     l1424:
  1833                           
  1834                           ;Proyecto2.c: 396:                 valor_ADC = 127;
  1835  0257  307F               	movlw	127
  1836  0258  00AC               	movwf	_valor_ADC
  1837  0259  3000               	movlw	0
  1838  025A  00AD               	movwf	_valor_ADC+1
  1839                           
  1840                           ;Proyecto2.c: 397:             }
  1841  025B  2A7D               	goto	l236
  1842  025C                     l228:
  1843  025C  2A7D               	goto	l236
  1844  025D                     l1426:
  1845  025D  3032               	movlw	50
  1846  025E  061A               	xorwf	26,w	;volatile
  1847  025F  1D03               	btfss	3,2
  1848  0260  2A62               	goto	u631
  1849  0261  2A63               	goto	u630
  1850  0262                     u631:
  1851  0262  2A7D               	goto	l236
  1852  0263                     u630:
  1853  0263                     l1428:
  1854                           
  1855                           ;Proyecto2.c: 407:         _delay((unsigned long)((500)*(8000000/4000.0)));
  1856  0263  3006               	movlw	6
  1857  0264  1283               	bcf	3,5	;RP0=0, select bank0
  1858  0265  1303               	bcf	3,6	;RP1=0, select bank0
  1859  0266  00AA               	movwf	??_terminal+2
  1860  0267  3013               	movlw	19
  1861  0268  00A9               	movwf	??_terminal+1
  1862  0269  30AD               	movlw	173
  1863  026A  00A8               	movwf	??_terminal
  1864  026B                     u977:
  1865  026B  0BA8               	decfsz	??_terminal,f
  1866  026C  2A6B               	goto	u977
  1867  026D  0BA9               	decfsz	??_terminal+1,f
  1868  026E  2A6B               	goto	u977
  1869  026F  0BAA               	decfsz	??_terminal+2,f
  1870  0270  2A6B               	goto	u977
  1871  0271                     l1430:
  1872                           
  1873                           ;Proyecto2.c: 408:         printf("\r\rAdios choripan\r");
  1874  0271  3032               	movlw	low (STR_20| (0+32768))
  1875  0272  1283               	bcf	3,5	;RP0=0, select bank0
  1876  0273  1303               	bcf	3,6	;RP1=0, select bank0
  1877  0274  00A1               	movwf	printf@f
  1878  0275  3084               	movlw	high (STR_20| (0+32768))
  1879  0276  00A2               	movwf	printf@f+1
  1880  0277  120A  118A  266A  120A  118A  	fcall	_printf
  1881  027C                     l1432:
  1882                           
  1883                           ;Proyecto2.c: 409:         bandera = 0;
  1884  027C  01F8               	clrf	_bandera
  1885  027D                     l236:	
  1886                           ;Proyecto2.c: 410:     }
  1887                           
  1888  027D  0008               	return
  1889  027E                     __end_of_terminal:
  1890                           
  1891                           	psect	text2
  1892  066A                     __ptext2:	
  1893 ;; *************** function _printf *****************
  1894 ;; Defined at:
  1895 ;;		line 477 in file "C:\Program Files\Microchip\xc8\v2.31\pic\sources\c90\common\doprnt.c"
  1896 ;; Parameters:    Size  Location     Type
  1897 ;;  f               2    1[BANK0 ] PTR const unsigned char 
  1898 ;;		 -> STR_20(18), STR_19(18), STR_18(25), STR_17(26), 
  1899 ;;		 -> STR_16(26), STR_15(14), STR_14(14), STR_13(15), 
  1900 ;;		 -> STR_12(20), STR_11(13), STR_10(16), STR_9(14), 
  1901 ;;		 -> STR_8(27), STR_7(32), STR_6(22), STR_5(11), 
  1902 ;;		 -> STR_4(29), STR_3(43), STR_2(26), STR_1(30), 
  1903 ;; Auto vars:     Size  Location     Type
  1904 ;;  tmpval          4    0        struct .
  1905 ;;  cp              2    0        PTR const unsigned char 
  1906 ;;  len             2    0        unsigned int 
  1907 ;;  val             2    0        unsigned int 
  1908 ;;  c               1    7[BANK0 ] unsigned char 
  1909 ;;  ap              1    6[BANK0 ] PTR void [1]
  1910 ;;		 -> ?_printf(2), 
  1911 ;;  flag            1    0        unsigned char 
  1912 ;;  prec            1    0        char 
  1913 ;; Return value:  Size  Location     Type
  1914 ;;                  2    1[BANK0 ] int 
  1915 ;; Registers used:
  1916 ;;		wreg, fsr0l, fsr0h, status,2, status,0, btemp+1, pclath, cstack
  1917 ;; Tracked objects:
  1918 ;;		On entry : 0/0
  1919 ;;		On exit  : 0/0
  1920 ;;		Unchanged: 0/0
  1921 ;; Data sizes:     COMMON   BANK0   BANK1   BANK3   BANK2
  1922 ;;      Params:         0       2       0       0       0
  1923 ;;      Locals:         0       2       0       0       0
  1924 ;;      Temps:          0       3       0       0       0
  1925 ;;      Totals:         0       7       0       0       0
  1926 ;;Total ram usage:        7 bytes
  1927 ;; Hardware stack levels used:    1
  1928 ;; Hardware stack levels required when called:    3
  1929 ;; This function calls:
  1930 ;;		_putch
  1931 ;; This function is called by:
  1932 ;;		_terminal
  1933 ;; This function uses a non-reentrant model
  1934 ;;
  1935                           
  1936                           
  1937                           ;psect for function _printf
  1938  066A                     _printf:
  1939  066A                     l1184:	
  1940                           ;incstack = 0
  1941                           ; Regs used in _printf: [wreg-fsr0h+status,2+status,0+btemp+1+pclath+cstack]
  1942                           
  1943                           
  1944                           ;C:\Program Files\Microchip\xc8\v2.31\pic\sources\c90\common\doprnt.c: 477: printf(const
      +                           char * f, ...);C:\Program Files\Microchip\xc8\v2.31\pic\sources\c90\common\doprnt.c: 47
      +                          8: {;C:\Program Files\Microchip\xc8\v2.31\pic\sources\c90\common\doprnt.c: 479:  va_list
      +                           ap;;C:\Program Files\Microchip\xc8\v2.31\pic\sources\c90\common\doprnt.c: 512:  char c;
      +                          ;C:\Program Files\Microchip\xc8\v2.31\pic\sources\c90\common\doprnt.c: 521:  signed char
      +                           prec;;C:\Program Files\Microchip\xc8\v2.31\pic\sources\c90\common\doprnt.c: 525:  unsig
      +                          ned char flag;
  1945  066A  3023               	movlw	(low ((?_printf| 0+2)))& (0+255)
  1946  066B  1283               	bcf	3,5	;RP0=0, select bank0
  1947  066C  1303               	bcf	3,6	;RP1=0, select bank0
  1948  066D  00A3               	movwf	??_printf
  1949  066E  0823               	movf	??_printf,w
  1950  066F  00A6               	movwf	printf@ap
  1951                           
  1952                           ;C:\Program Files\Microchip\xc8\v2.31\pic\sources\c90\common\doprnt.c: 553:  while((c = 
      +                          *f++)) {
  1953  0670  2E77               	goto	l1188
  1954  0671                     l1186:
  1955                           
  1956                           ;C:\Program Files\Microchip\xc8\v2.31\pic\sources\c90\common\doprnt.c: 557:   {;C:\Progr
      +                          am Files\Microchip\xc8\v2.31\pic\sources\c90\common\doprnt.c: 558:    (putch(c) );
  1957  0671  0827               	movf	printf@c,w
  1958  0672  120A  118A  26BF  120A  118A  	fcall	_putch
  1959  0677                     l1188:	
  1960                           ;C:\Program Files\Microchip\xc8\v2.31\pic\sources\c90\common\doprnt.c: 559:    continue;
  1961                           
  1962                           
  1963                           ;C:\Program Files\Microchip\xc8\v2.31\pic\sources\c90\common\doprnt.c: 553:  while((c = 
      +                          *f++)) {
  1964  0677  1283               	bcf	3,5	;RP0=0, select bank0
  1965  0678  1303               	bcf	3,6	;RP1=0, select bank0
  1966  0679  0822               	movf	printf@f+1,w
  1967  067A  00A4               	movwf	??_printf+1
  1968  067B  0821               	movf	printf@f,w
  1969  067C  00A3               	movwf	??_printf
  1970  067D  0AA1               	incf	printf@f,f
  1971  067E  1903               	skipnz
  1972  067F  0AA2               	incf	printf@f+1,f
  1973  0680  0824               	movf	??_printf+1,w
  1974  0681  00FF               	movwf	btemp+1
  1975  0682  0823               	movf	??_printf,w
  1976  0683  0084               	movwf	4
  1977  0684  120A  118A  227E  120A  118A  	fcall	stringtab
  1978  0689  00A5               	movwf	??_printf+2
  1979  068A  0825               	movf	??_printf+2,w
  1980  068B  00A7               	movwf	printf@c
  1981  068C  0827               	movf	printf@c,w
  1982  068D  1D03               	btfss	3,2
  1983  068E  2E90               	goto	u421
  1984  068F  2E91               	goto	u420
  1985  0690                     u421:
  1986  0690  2E71               	goto	l1186
  1987  0691                     u420:
  1988  0691                     l328:
  1989  0691  0008               	return
  1990  0692                     __end_of_printf:
  1991                           
  1992                           	psect	text3
  1993  06BF                     __ptext3:	
  1994 ;; *************** function _putch *****************
  1995 ;; Defined at:
  1996 ;;		line 288 in file "Proyecto2.c"
  1997 ;; Parameters:    Size  Location     Type
  1998 ;;  valor           1    wreg     unsigned char 
  1999 ;; Auto vars:     Size  Location     Type
  2000 ;;  valor           1    0[BANK0 ] unsigned char 
  2001 ;; Return value:  Size  Location     Type
  2002 ;;                  1    wreg      void 
  2003 ;; Registers used:
  2004 ;;		wreg
  2005 ;; Tracked objects:
  2006 ;;		On entry : 0/0
  2007 ;;		On exit  : 0/0
  2008 ;;		Unchanged: 0/0
  2009 ;; Data sizes:     COMMON   BANK0   BANK1   BANK3   BANK2
  2010 ;;      Params:         0       0       0       0       0
  2011 ;;      Locals:         0       1       0       0       0
  2012 ;;      Temps:          0       0       0       0       0
  2013 ;;      Totals:         0       1       0       0       0
  2014 ;;Total ram usage:        1 bytes
  2015 ;; Hardware stack levels used:    1
  2016 ;; Hardware stack levels required when called:    2
  2017 ;; This function calls:
  2018 ;;		Nothing
  2019 ;; This function is called by:
  2020 ;;		_printf
  2021 ;; This function uses a non-reentrant model
  2022 ;;
  2023                           
  2024                           
  2025                           ;psect for function _putch
  2026  06BF                     _putch:
  2027                           
  2028                           ;incstack = 0
  2029                           ; Regs used in _putch: [wreg]
  2030                           ;putch@valor stored from wreg
  2031  06BF  1283               	bcf	3,5	;RP0=0, select bank0
  2032  06C0  1303               	bcf	3,6	;RP1=0, select bank0
  2033  06C1  00A0               	movwf	putch@valor
  2034  06C2                     l1178:
  2035  06C2                     l190:	
  2036                           ;Proyecto2.c: 289:     while(TXIF == 0);
  2037                           
  2038  06C2  1E0C               	btfss	12,4	;volatile
  2039  06C3  2EC5               	goto	u411
  2040  06C4  2EC6               	goto	u410
  2041  06C5                     u411:
  2042  06C5  2EC2               	goto	l190
  2043  06C6                     u410:
  2044  06C6                     l1180:
  2045                           
  2046                           ;Proyecto2.c: 290:     TXREG = valor;
  2047  06C6  0820               	movf	putch@valor,w
  2048  06C7  0099               	movwf	25	;volatile
  2049  06C8                     l193:
  2050  06C8  0008               	return
  2051  06C9                     __end_of_putch:
  2052                           
  2053                           	psect	text4
  2054  059A                     __ptext4:	
  2055 ;; *************** function _setup *****************
  2056 ;; Defined at:
  2057 ;;		line 153 in file "Proyecto2.c"
  2058 ;; Parameters:    Size  Location     Type
  2059 ;;		None
  2060 ;; Auto vars:     Size  Location     Type
  2061 ;;		None
  2062 ;; Return value:  Size  Location     Type
  2063 ;;                  1    wreg      void 
  2064 ;; Registers used:
  2065 ;;		wreg, status,2, status,0
  2066 ;; Tracked objects:
  2067 ;;		On entry : 0/0
  2068 ;;		On exit  : 0/0
  2069 ;;		Unchanged: 0/0
  2070 ;; Data sizes:     COMMON   BANK0   BANK1   BANK3   BANK2
  2071 ;;      Params:         0       0       0       0       0
  2072 ;;      Locals:         0       0       0       0       0
  2073 ;;      Temps:          0       1       0       0       0
  2074 ;;      Totals:         0       1       0       0       0
  2075 ;;Total ram usage:        1 bytes
  2076 ;; Hardware stack levels used:    1
  2077 ;; Hardware stack levels required when called:    2
  2078 ;; This function calls:
  2079 ;;		Nothing
  2080 ;; This function is called by:
  2081 ;;		_main
  2082 ;; This function uses a non-reentrant model
  2083 ;;
  2084                           
  2085                           
  2086                           ;psect for function _setup
  2087  059A                     _setup:
  2088  059A                     l1208:	
  2089                           ;incstack = 0
  2090                           ; Regs used in _setup: [wreg+status,2+status,0]
  2091                           
  2092                           
  2093                           ;Proyecto2.c: 155: 
  2094  059A  300F               	movlw	15
  2095  059B  1683               	bsf	3,5	;RP0=1, select bank3
  2096  059C  1703               	bsf	3,6	;RP1=1, select bank3
  2097  059D  0088               	movwf	8	;volatile
  2098  059E                     l1210:
  2099                           
  2100                           ;Proyecto2.c: 156:     ADCON0bits.ADCS = 0b10;
  2101  059E  0189               	clrf	9	;volatile
  2102  059F                     l1212:
  2103                           
  2104                           ;Proyecto2.c: 158:     ADCON0bits.ADON = 1;
  2105  059F  300F               	movlw	15
  2106  05A0  1683               	bsf	3,5	;RP0=1, select bank1
  2107  05A1  1303               	bcf	3,6	;RP1=0, select bank1
  2108  05A2  0085               	movwf	5	;volatile
  2109  05A3                     l1214:
  2110                           
  2111                           ;Proyecto2.c: 159:     _delay((unsigned long)((100)*(8000000/4000000.0)));
  2112  05A3  30E0               	movlw	224
  2113  05A4  0086               	movwf	6	;volatile
  2114  05A5                     l1216:
  2115                           
  2116                           ;Proyecto2.c: 160: 
  2117  05A5  0187               	clrf	7	;volatile
  2118  05A6                     l1218:
  2119                           
  2120                           ;Proyecto2.c: 161: 
  2121  05A6  0188               	clrf	8	;volatile
  2122  05A7                     l1220:
  2123                           
  2124                           ;Proyecto2.c: 162:     TRISCbits.TRISC1 = 1;
  2125  05A7  0189               	clrf	9	;volatile
  2126  05A8                     l1222:
  2127                           
  2128                           ;Proyecto2.c: 164: 
  2129  05A8  1283               	bcf	3,5	;RP0=0, select bank0
  2130  05A9  1303               	bcf	3,6	;RP1=0, select bank0
  2131  05AA  0185               	clrf	5	;volatile
  2132  05AB                     l1224:
  2133                           
  2134                           ;Proyecto2.c: 165:     PR2 = 250;
  2135  05AB  0186               	clrf	6	;volatile
  2136  05AC                     l1226:
  2137                           
  2138                           ;Proyecto2.c: 166:     CCP1CONbits.P1M = 0;
  2139  05AC  0187               	clrf	7	;volatile
  2140  05AD                     l1228:
  2141                           
  2142                           ;Proyecto2.c: 167:     CCP1CONbits.CCP1M = 0b1100;
  2143  05AD  0188               	clrf	8	;volatile
  2144  05AE                     l1230:
  2145                           
  2146                           ;Proyecto2.c: 168:     CCP2CONbits.CCP2M = 0b1100;
  2147  05AE  0189               	clrf	9	;volatile
  2148  05AF                     l1232:
  2149                           
  2150                           ;Proyecto2.c: 171:     CCP1CONbits.DC1B = 0;
  2151  05AF  1683               	bsf	3,5	;RP0=1, select bank1
  2152  05B0  1303               	bcf	3,6	;RP1=0, select bank1
  2153  05B1  140F               	bsf	15,0	;volatile
  2154  05B2                     l1234:
  2155                           
  2156                           ;Proyecto2.c: 172: 
  2157  05B2  3070               	movlw	112
  2158  05B3  048F               	iorwf	15,f	;volatile
  2159  05B4                     l1236:
  2160                           
  2161                           ;Proyecto2.c: 175:     PIE1bits.ADIE = 1;
  2162  05B4  1381               	bcf	1,7	;volatile
  2163  05B5                     l1238:
  2164                           
  2165                           ;Proyecto2.c: 176:     INTCONbits.PEIE = 1;
  2166  05B5  1715               	bsf	21,6	;volatile
  2167  05B6                     l1240:
  2168                           
  2169                           ;Proyecto2.c: 177:     INTCONbits.T0IE = 1;
  2170  05B6  1795               	bsf	21,7	;volatile
  2171  05B7                     l1242:
  2172                           
  2173                           ;Proyecto2.c: 178:     INTCONbits.T0IF = 0;
  2174  05B7  1695               	bsf	21,5	;volatile
  2175  05B8                     l1244:
  2176                           
  2177                           ;Proyecto2.c: 179:     INTCONbits.RBIE = 1;
  2178  05B8  1716               	bsf	22,6	;volatile
  2179  05B9                     l1246:
  2180                           
  2181                           ;Proyecto2.c: 180:     INTCONbits.RBIF = 1;
  2182  05B9  1796               	bsf	22,7	;volatile
  2183  05BA                     l1248:
  2184                           
  2185                           ;Proyecto2.c: 181:     INTCONbits.GIE = 1;
  2186  05BA  1696               	bsf	22,5	;volatile
  2187  05BB                     l1250:
  2188  05BB  139F               	bcf	31,7	;volatile
  2189  05BC                     l1252:
  2190  05BC  121F               	bcf	31,4	;volatile
  2191  05BD                     l1254:
  2192  05BD  129F               	bcf	31,5	;volatile
  2193  05BE                     l1256:
  2194  05BE  1283               	bcf	3,5	;RP0=0, select bank0
  2195  05BF  1303               	bcf	3,6	;RP1=0, select bank0
  2196  05C0  081F               	movf	31,w	;volatile
  2197  05C1  393F               	andlw	-193
  2198  05C2  3880               	iorlw	128
  2199  05C3  009F               	movwf	31	;volatile
  2200  05C4                     l1258:
  2201  05C4  30C3               	movlw	-61
  2202  05C5  059F               	andwf	31,f	;volatile
  2203  05C6                     l1260:
  2204  05C6  141F               	bsf	31,0	;volatile
  2205  05C7                     l1262:
  2206  05C7  3041               	movlw	65
  2207  05C8  1283               	bcf	3,5	;RP0=0, select bank0
  2208  05C9  1303               	bcf	3,6	;RP1=0, select bank0
  2209  05CA  00A0               	movwf	??_setup
  2210  05CB                     u987:
  2211  05CB  0BA0               	decfsz	??_setup,f
  2212  05CC  2DCB               	goto	u987
  2213  05CD  2DCE               	nop2
  2214  05CE                     l1264:
  2215  05CE  1683               	bsf	3,5	;RP0=1, select bank1
  2216  05CF  1303               	bcf	3,6	;RP1=0, select bank1
  2217  05D0  1487               	bsf	7,1	;volatile
  2218  05D1                     l1266:
  2219  05D1  1507               	bsf	7,2	;volatile
  2220  05D2                     l1268:
  2221  05D2  30FA               	movlw	250
  2222  05D3  0092               	movwf	18	;volatile
  2223  05D4                     l1270:
  2224  05D4  303F               	movlw	-193
  2225  05D5  1283               	bcf	3,5	;RP0=0, select bank0
  2226  05D6  1303               	bcf	3,6	;RP1=0, select bank0
  2227  05D7  0597               	andwf	23,f	;volatile
  2228  05D8                     l1272:
  2229  05D8  0817               	movf	23,w	;volatile
  2230  05D9  39F0               	andlw	-16
  2231  05DA  380C               	iorlw	12
  2232  05DB  0097               	movwf	23	;volatile
  2233  05DC                     l1274:
  2234  05DC  081D               	movf	29,w	;volatile
  2235  05DD  39F0               	andlw	-16
  2236  05DE  380C               	iorlw	12
  2237  05DF  009D               	movwf	29	;volatile
  2238  05E0                     l1276:
  2239  05E0  300F               	movlw	15
  2240  05E1  0095               	movwf	21	;volatile
  2241  05E2                     l1278:
  2242  05E2  30CF               	movlw	-49
  2243  05E3  0597               	andwf	23,f	;volatile
  2244  05E4                     l1280:
  2245  05E4  130C               	bcf	12,6	;volatile
  2246  05E5                     l1282:
  2247  05E5  1683               	bsf	3,5	;RP0=1, select bank1
  2248  05E6  1303               	bcf	3,6	;RP1=0, select bank1
  2249  05E7  170C               	bsf	12,6	;volatile
  2250  05E8                     l1284:
  2251  05E8  170B               	bsf	11,6	;volatile
  2252  05E9                     l1286:
  2253  05E9  168B               	bsf	11,5	;volatile
  2254  05EA                     l1288:
  2255  05EA  110B               	bcf	11,2	;volatile
  2256  05EB                     l1290:
  2257  05EB  158B               	bsf	11,3	;volatile
  2258  05EC                     l1292:
  2259  05EC  140B               	bsf	11,0	;volatile
  2260  05ED                     l1294:
  2261  05ED  178B               	bsf	11,7	;volatile
  2262  05EE                     l1296:
  2263                           
  2264                           ;Proyecto2.c: 224:     PIR1bits.TMR2IF = 0;
  2265  05EE  1283               	bcf	3,5	;RP0=0, select bank0
  2266  05EF  1303               	bcf	3,6	;RP1=0, select bank0
  2267  05F0  108C               	bcf	12,1	;volatile
  2268  05F1                     l1298:
  2269                           
  2270                           ;Proyecto2.c: 225:     T2CONbits.T2CKPS = 0b11;
  2271  05F1  3003               	movlw	3
  2272  05F2  0492               	iorwf	18,f	;volatile
  2273  05F3                     l1300:
  2274                           
  2275                           ;Proyecto2.c: 226:     T2CONbits.TMR2ON = 1;
  2276  05F3  1512               	bsf	18,2	;volatile
  2277  05F4                     l175:	
  2278                           ;Proyecto2.c: 228:     while(PIR1bits.TMR2IF == 0);
  2279                           
  2280  05F4  1C8C               	btfss	12,1	;volatile
  2281  05F5  2DF7               	goto	u441
  2282  05F6  2DF8               	goto	u440
  2283  05F7                     u441:
  2284  05F7  2DF4               	goto	l175
  2285  05F8                     u440:
  2286  05F8                     l177:
  2287                           
  2288                           ;Proyecto2.c: 229:     PIR1bits.TMR2IF = 0;
  2289  05F8  108C               	bcf	12,1	;volatile
  2290                           
  2291                           ;Proyecto2.c: 232:     TRISCbits.TRISC1 = 0;
  2292  05F9  1683               	bsf	3,5	;RP0=1, select bank1
  2293  05FA  1303               	bcf	3,6	;RP1=0, select bank1
  2294  05FB  1087               	bcf	7,1	;volatile
  2295                           
  2296                           ;Proyecto2.c: 233:     TRISCbits.TRISC2 = 0;
  2297  05FC  1107               	bcf	7,2	;volatile
  2298                           
  2299                           ;Proyecto2.c: 236:     OPTION_REGbits.T0CS = 0;
  2300  05FD  1281               	bcf	1,5	;volatile
  2301                           
  2302                           ;Proyecto2.c: 237:     OPTION_REGbits.PSA = 0;
  2303  05FE  1181               	bcf	1,3	;volatile
  2304  05FF                     l1302:
  2305                           
  2306                           ;Proyecto2.c: 238:     OPTION_REGbits.PS = 0b011;
  2307  05FF  0801               	movf	1,w	;volatile
  2308  0600  39F8               	andlw	-8
  2309  0601  3803               	iorlw	3
  2310  0602  0081               	movwf	1	;volatile
  2311  0603                     l1304:
  2312                           
  2313                           ;Proyecto2.c: 239:     TMR0 = 246;
  2314  0603  30F6               	movlw	246
  2315  0604  1283               	bcf	3,5	;RP0=0, select bank0
  2316  0605  1303               	bcf	3,6	;RP1=0, select bank0
  2317  0606  0081               	movwf	1	;volatile
  2318  0607                     l1306:
  2319                           
  2320                           ;Proyecto2.c: 242:     TXSTAbits.SYNC = 0;
  2321  0607  1683               	bsf	3,5	;RP0=1, select bank1
  2322  0608  1303               	bcf	3,6	;RP1=0, select bank1
  2323  0609  1218               	bcf	24,4	;volatile
  2324  060A                     l1308:
  2325                           
  2326                           ;Proyecto2.c: 243:     TXSTAbits.BRGH = 1;
  2327  060A  1518               	bsf	24,2	;volatile
  2328  060B                     l1310:
  2329                           
  2330                           ;Proyecto2.c: 245:     BAUDCTLbits.BRG16 = 1;
  2331  060B  1683               	bsf	3,5	;RP0=1, select bank3
  2332  060C  1703               	bsf	3,6	;RP1=1, select bank3
  2333  060D  1587               	bsf	7,3	;volatile
  2334  060E                     l1312:
  2335                           
  2336                           ;Proyecto2.c: 247:     SPBRG = 207;
  2337  060E  30CF               	movlw	207
  2338  060F  1683               	bsf	3,5	;RP0=1, select bank1
  2339  0610  1303               	bcf	3,6	;RP1=0, select bank1
  2340  0611  0099               	movwf	25	;volatile
  2341  0612                     l1314:
  2342                           
  2343                           ;Proyecto2.c: 248:     SPBRGH = 0;
  2344  0612  019A               	clrf	26	;volatile
  2345  0613                     l1316:
  2346                           
  2347                           ;Proyecto2.c: 250:     RCSTAbits.SPEN = 1;
  2348  0613  1283               	bcf	3,5	;RP0=0, select bank0
  2349  0614  1303               	bcf	3,6	;RP1=0, select bank0
  2350  0615  1798               	bsf	24,7	;volatile
  2351  0616                     l1318:
  2352                           
  2353                           ;Proyecto2.c: 251:     RCSTAbits.RX9 = 0;
  2354  0616  1318               	bcf	24,6	;volatile
  2355  0617                     l1320:
  2356                           
  2357                           ;Proyecto2.c: 252:     RCSTAbits.CREN = 1;
  2358  0617  1618               	bsf	24,4	;volatile
  2359  0618                     l1322:
  2360                           
  2361                           ;Proyecto2.c: 254:     TXSTAbits.TXEN = 1;
  2362  0618  1683               	bsf	3,5	;RP0=1, select bank1
  2363  0619  1303               	bcf	3,6	;RP1=0, select bank1
  2364  061A  1698               	bsf	24,5	;volatile
  2365  061B                     l178:
  2366  061B  0008               	return
  2367  061C                     __end_of_setup:
  2368                           
  2369                           	psect	text5
  2370  04B7                     __ptext5:	
  2371 ;; *************** function _interrupcion *****************
  2372 ;; Defined at:
  2373 ;;		line 52 in file "Proyecto2.c"
  2374 ;; Parameters:    Size  Location     Type
  2375 ;;		None
  2376 ;; Auto vars:     Size  Location     Type
  2377 ;;		None
  2378 ;; Return value:  Size  Location     Type
  2379 ;;                  1    wreg      void 
  2380 ;; Registers used:
  2381 ;;		wreg, status,2, status,0, pclath, cstack
  2382 ;; Tracked objects:
  2383 ;;		On entry : 0/0
  2384 ;;		On exit  : 0/0
  2385 ;;		Unchanged: 0/0
  2386 ;; Data sizes:     COMMON   BANK0   BANK1   BANK3   BANK2
  2387 ;;      Params:         0       0       0       0       0
  2388 ;;      Locals:         0       0       0       0       0
  2389 ;;      Temps:          5       0       0       0       0
  2390 ;;      Totals:         5       0       0       0       0
  2391 ;;Total ram usage:        5 bytes
  2392 ;; Hardware stack levels used:    1
  2393 ;; Hardware stack levels required when called:    1
  2394 ;; This function calls:
  2395 ;;		_escribir
  2396 ;;		_leer
  2397 ;; This function is called by:
  2398 ;;		Interrupt level 1
  2399 ;; This function uses a non-reentrant model
  2400 ;;
  2401                           
  2402                           
  2403                           ;psect for function _interrupcion
  2404  04B7                     _interrupcion:
  2405  04B7                     i1l1434:
  2406                           
  2407                           ;Proyecto2.c: 55:     if (PORTBbits.RB6 == 0){
  2408  04B7  1283               	bcf	3,5	;RP0=0, select bank0
  2409  04B8  1303               	bcf	3,6	;RP1=0, select bank0
  2410  04B9  1F0C               	btfss	12,6	;volatile
  2411  04BA  2CBC               	goto	u64_21
  2412  04BB  2CBD               	goto	u64_20
  2413  04BC                     u64_21:
  2414  04BC  2CF6               	goto	i1l1454
  2415  04BD                     u64_20:
  2416  04BD                     i1l1436:
  2417                           
  2418                           ;Proyecto2.c: 56:         PORTEbits.RE0 = 1;
  2419  04BD  0C1F               	rrf	31,w	;volatile
  2420  04BE  00F3               	movwf	??_interrupcion
  2421  04BF  0C73               	rrf	??_interrupcion,w
  2422  04C0  390F               	andlw	15
  2423  04C1  3A00               	xorlw	0
  2424  04C2  1D03               	skipz
  2425  04C3  2CC5               	goto	u65_21
  2426  04C4  2CC6               	goto	u65_20
  2427  04C5                     u65_21:
  2428  04C5  2CD1               	goto	i1l1442
  2429  04C6                     u65_20:
  2430  04C6                     i1l1438:
  2431                           
  2432                           ;Proyecto2.c: 57: 
  2433  04C6  081E               	movf	30,w	;volatile
  2434  04C7  00F3               	movwf	??_interrupcion
  2435  04C8  0873               	movf	??_interrupcion,w
  2436  04C9  00FA               	movwf	_var1
  2437  04CA                     i1l1440:
  2438                           
  2439                           ;Proyecto2.c: 58:         escribir(var1, 0x17);
  2440  04CA  087A               	movf	_var1,w
  2441  04CB  00F3               	movwf	??_interrupcion
  2442  04CC  1003               	clrc
  2443  04CD  0C73               	rrf	??_interrupcion,w
  2444  04CE  3E7D               	addlw	125
  2445  04CF  0095               	movwf	21	;volatile
  2446                           
  2447                           ;Proyecto2.c: 59:         escribir(var2, 0x18);
  2448  04D0  2CF5               	goto	i1l1452
  2449  04D1                     i1l1442:
  2450  04D1  0C1F               	rrf	31,w	;volatile
  2451  04D2  00F3               	movwf	??_interrupcion
  2452  04D3  0C73               	rrf	??_interrupcion,w
  2453  04D4  390F               	andlw	15
  2454  04D5  3A01               	xorlw	1
  2455  04D6  1D03               	skipz
  2456  04D7  2CD9               	goto	u66_21
  2457  04D8  2CDA               	goto	u66_20
  2458  04D9                     u66_21:
  2459  04D9  2CE5               	goto	i1l1448
  2460  04DA                     u66_20:
  2461  04DA                     i1l1444:
  2462                           
  2463                           ;Proyecto2.c: 61:         _delay((unsigned long)((250)*(8000000/4000.0)));
  2464  04DA  081E               	movf	30,w	;volatile
  2465  04DB  00F3               	movwf	??_interrupcion
  2466  04DC  0873               	movf	??_interrupcion,w
  2467  04DD  00F9               	movwf	_var2
  2468  04DE                     i1l1446:
  2469                           
  2470                           ;Proyecto2.c: 62:     }
  2471  04DE  0879               	movf	_var2,w
  2472  04DF  00F3               	movwf	??_interrupcion
  2473  04E0  1003               	clrc
  2474  04E1  0C73               	rrf	??_interrupcion,w
  2475  04E2  3E7D               	addlw	125
  2476  04E3  009B               	movwf	27	;volatile
  2477                           
  2478                           ;Proyecto2.c: 63:     else if (PORTBbits.RB7 == 0){
  2479  04E4  2CF5               	goto	i1l1452
  2480  04E5                     i1l1448:
  2481  04E5  0C1F               	rrf	31,w	;volatile
  2482  04E6  00F3               	movwf	??_interrupcion
  2483  04E7  0C73               	rrf	??_interrupcion,w
  2484  04E8  390F               	andlw	15
  2485  04E9  3A02               	xorlw	2
  2486  04EA  1D03               	skipz
  2487  04EB  2CED               	goto	u67_21
  2488  04EC  2CEE               	goto	u67_20
  2489  04ED                     u67_21:
  2490  04ED  2CF5               	goto	i1l1452
  2491  04EE                     u67_20:
  2492  04EE                     i1l1450:
  2493                           
  2494                           ;Proyecto2.c: 65:         PORTEbits.RE1 = 1;
  2495  04EE  081E               	movf	30,w	;volatile
  2496  04EF  00F3               	movwf	??_interrupcion
  2497  04F0  01F4               	clrf	??_interrupcion+1
  2498  04F1  0873               	movf	??_interrupcion,w
  2499  04F2  00AC               	movwf	_valor_ADC
  2500  04F3  0874               	movf	??_interrupcion+1,w
  2501  04F4  00AD               	movwf	_valor_ADC+1
  2502  04F5                     i1l1452:
  2503                           
  2504                           ;Proyecto2.c: 67:         lectura2 = leer (0x18);
  2505  04F5  130C               	bcf	12,6	;volatile
  2506  04F6                     i1l1454:
  2507                           
  2508                           ;Proyecto2.c: 71: 
  2509  04F6  1D0B               	btfss	11,2	;volatile
  2510  04F7  2CF9               	goto	u68_21
  2511  04F8  2CFA               	goto	u68_20
  2512  04F9                     u68_21:
  2513  04F9  2D20               	goto	i1l1466
  2514  04FA                     u68_20:
  2515  04FA                     i1l1456:
  2516                           
  2517                           ;Proyecto2.c: 72:         _delay((unsigned long)((2000)*(8000000/4000.0)));
  2518  04FA  3001               	movlw	1
  2519  04FB  07AE               	addwf	_motores,f
  2520  04FC  1803               	skipnc
  2521  04FD  0AAF               	incf	_motores+1,f
  2522  04FE  3000               	movlw	0
  2523  04FF  07AF               	addwf	_motores+1,f
  2524                           
  2525                           ;Proyecto2.c: 73:         ADCON0bits.ADON = 1;
  2526  0500  082F               	movf	_motores+1,w
  2527  0501  3A80               	xorlw	128
  2528  0502  00F3               	movwf	??_interrupcion
  2529  0503  082D               	movf	_valor_ADC+1,w
  2530  0504  3A80               	xorlw	128
  2531  0505  0273               	subwf	??_interrupcion,w
  2532  0506  1D03               	skipz
  2533  0507  2D0A               	goto	u69_25
  2534  0508  082C               	movf	_valor_ADC,w
  2535  0509  022E               	subwf	_motores,w
  2536  050A                     u69_25:
  2537  050A  1C03               	skipc
  2538  050B  2D0D               	goto	u69_21
  2539  050C  2D0E               	goto	u69_20
  2540  050D                     u69_21:
  2541  050D  2D13               	goto	i1l144
  2542  050E                     u69_20:
  2543  050E                     i1l1458:
  2544                           
  2545                           ;Proyecto2.c: 74:     }
  2546  050E  1283               	bcf	3,5	;RP0=0, select bank0
  2547  050F  1303               	bcf	3,6	;RP1=0, select bank0
  2548  0510  1008               	bcf	8,0	;volatile
  2549                           
  2550                           ;Proyecto2.c: 75:     else if (PORTBbits.RB5 == 0){
  2551  0511  1088               	bcf	8,1	;volatile
  2552                           
  2553                           ;Proyecto2.c: 76: 
  2554  0512  2D17               	goto	i1l1460
  2555  0513                     i1l144:	
  2556                           ;Proyecto2.c: 77:         if (bandera == 0){
  2557                           
  2558                           
  2559                           ;Proyecto2.c: 78:           bandera = 1;
  2560  0513  1283               	bcf	3,5	;RP0=0, select bank0
  2561  0514  1303               	bcf	3,6	;RP1=0, select bank0
  2562  0515  1408               	bsf	8,0	;volatile
  2563                           
  2564                           ;Proyecto2.c: 79:         }
  2565  0516  1488               	bsf	8,1	;volatile
  2566  0517                     i1l1460:
  2567                           
  2568                           ;Proyecto2.c: 81:             bandera = 0;
  2569  0517  0A2E               	incf	_motores,w
  2570  0518  042F               	iorwf	_motores+1,w
  2571  0519  1D03               	btfss	3,2
  2572  051A  2D1C               	goto	u70_21
  2573  051B  2D1D               	goto	u70_20
  2574  051C                     u70_21:
  2575  051C  2D1F               	goto	i1l1464
  2576  051D                     u70_20:
  2577  051D                     i1l1462:
  2578                           
  2579                           ;Proyecto2.c: 82:         }
  2580  051D  01AE               	clrf	_motores
  2581  051E  01AF               	clrf	_motores+1
  2582  051F                     i1l1464:
  2583                           
  2584                           ;Proyecto2.c: 83:     }
  2585  051F  110B               	bcf	11,2	;volatile
  2586  0520                     i1l1466:
  2587                           
  2588                           ;Proyecto2.c: 86:       PORTEbits.RE1 = 0;
  2589  0520  1C0B               	btfss	11,0	;volatile
  2590  0521  2D23               	goto	u71_21
  2591  0522  2D24               	goto	u71_20
  2592  0523                     u71_21:
  2593  0523  2D93               	goto	i1l156
  2594  0524                     u71_20:
  2595  0524                     i1l1468:
  2596                           
  2597                           ;Proyecto2.c: 87:     }
  2598  0524  1B06               	btfsc	6,6	;volatile
  2599  0525  2D27               	goto	u72_21
  2600  0526  2D28               	goto	u72_20
  2601  0527                     u72_21:
  2602  0527  2D4B               	goto	i1l148
  2603  0528                     u72_20:
  2604  0528                     i1l1470:
  2605                           
  2606                           ;Proyecto2.c: 88:     INTCONbits.RBIF = 0;
  2607  0528  1409               	bsf	9,0	;volatile
  2608  0529                     i1l1472:
  2609                           
  2610                           ;Proyecto2.c: 90: }
  2611  0529  3017               	movlw	23
  2612  052A  00F3               	movwf	??_interrupcion
  2613  052B  0873               	movf	??_interrupcion,w
  2614  052C  00F0               	movwf	escribir@localidad
  2615  052D  087A               	movf	_var1,w
  2616  052E  120A  118A  2692  120A  118A  	fcall	_escribir
  2617                           
  2618                           ;Proyecto2.c: 91: 
  2619  0533  3018               	movlw	24
  2620  0534  00F3               	movwf	??_interrupcion
  2621  0535  0873               	movf	??_interrupcion,w
  2622  0536  00F0               	movwf	escribir@localidad
  2623  0537  0879               	movf	_var2,w
  2624  0538  120A  118A  2692  120A  118A  	fcall	_escribir
  2625  053D                     i1l1474:
  2626                           
  2627                           ;Proyecto2.c: 93: void main (void) {
  2628  053D  3003               	movlw	3
  2629  053E  00F5               	movwf	??_interrupcion+2
  2630  053F  308A               	movlw	138
  2631  0540  00F4               	movwf	??_interrupcion+1
  2632  0541  3055               	movlw	85
  2633  0542  00F3               	movwf	??_interrupcion
  2634  0543                     u99_27:
  2635  0543  0BF3               	decfsz	??_interrupcion,f
  2636  0544  2D43               	goto	u99_27
  2637  0545  0BF4               	decfsz	??_interrupcion+1,f
  2638  0546  2D43               	goto	u99_27
  2639  0547  0BF5               	decfsz	??_interrupcion+2,f
  2640  0548  2D43               	goto	u99_27
  2641  0549  2D4A               	nop2
  2642                           
  2643                           ;Proyecto2.c: 94:     setup();
  2644  054A  2D92               	goto	i1l149
  2645  054B                     i1l148:	
  2646                           ;Proyecto2.c: 95:     ADCON0bits.GO = 1;
  2647                           
  2648  054B  1B86               	btfsc	6,7	;volatile
  2649  054C  2D4E               	goto	u73_21
  2650  054D  2D4F               	goto	u73_20
  2651  054E                     u73_21:
  2652  054E  2D82               	goto	i1l150
  2653  054F                     u73_20:
  2654  054F                     i1l1476:
  2655                           
  2656                           ;Proyecto2.c: 96: 
  2657  054F  101F               	bcf	31,0	;volatile
  2658                           
  2659                           ;Proyecto2.c: 97:     while (1){
  2660  0550  1489               	bsf	9,1	;volatile
  2661  0551                     i1l1478:
  2662                           
  2663                           ;Proyecto2.c: 98:         if (bandera == 1){
  2664  0551  3017               	movlw	23
  2665  0552  120A  118A  26AE  120A  118A  	fcall	_leer
  2666  0557  00F3               	movwf	??_interrupcion
  2667  0558  0873               	movf	??_interrupcion,w
  2668  0559  00FC               	movwf	_lectura1
  2669                           
  2670                           ;Proyecto2.c: 99:             terminal();
  2671  055A  3018               	movlw	24
  2672  055B  120A  118A  26AE  120A  118A  	fcall	_leer
  2673  0560  00F3               	movwf	??_interrupcion
  2674  0561  0873               	movf	??_interrupcion,w
  2675  0562  00FB               	movwf	_lectura2
  2676  0563                     i1l1480:
  2677                           
  2678                           ;Proyecto2.c: 101: 
  2679  0563  087C               	movf	_lectura1,w
  2680  0564  00F3               	movwf	??_interrupcion
  2681  0565  1003               	clrc
  2682  0566  0C73               	rrf	??_interrupcion,w
  2683  0567  3E7D               	addlw	125
  2684  0568  1283               	bcf	3,5	;RP0=0, select bank0
  2685  0569  1303               	bcf	3,6	;RP1=0, select bank0
  2686  056A  0095               	movwf	21	;volatile
  2687  056B                     i1l1482:
  2688                           
  2689                           ;Proyecto2.c: 102:         else {
  2690  056B  087B               	movf	_lectura2,w
  2691  056C  00F3               	movwf	??_interrupcion
  2692  056D  1003               	clrc
  2693  056E  0C73               	rrf	??_interrupcion,w
  2694  056F  3E7D               	addlw	125
  2695  0570  009B               	movwf	27	;volatile
  2696  0571                     i1l1484:
  2697                           
  2698                           ;Proyecto2.c: 104:                 if (ADCON0bits.CHS == 0){
  2699  0571  3015               	movlw	21
  2700  0572  00F5               	movwf	??_interrupcion+2
  2701  0573  304B               	movlw	75
  2702  0574  00F4               	movwf	??_interrupcion+1
  2703  0575  30BE               	movlw	190
  2704  0576  00F3               	movwf	??_interrupcion
  2705  0577                     u100_27:
  2706  0577  0BF3               	decfsz	??_interrupcion,f
  2707  0578  2D77               	goto	u100_27
  2708  0579  0BF4               	decfsz	??_interrupcion+1,f
  2709  057A  2D77               	goto	u100_27
  2710  057B  0BF5               	decfsz	??_interrupcion+2,f
  2711  057C  2D77               	goto	u100_27
  2712  057D  0000               	nop
  2713  057E                     i1l1486:
  2714                           
  2715                           ;Proyecto2.c: 105:                 ADCON0bits.CHS = 1;
  2716  057E  1283               	bcf	3,5	;RP0=0, select bank0
  2717  057F  1303               	bcf	3,6	;RP1=0, select bank0
  2718  0580  141F               	bsf	31,0	;volatile
  2719                           
  2720                           ;Proyecto2.c: 106:                 }
  2721  0581  2D92               	goto	i1l149
  2722  0582                     i1l150:	
  2723                           ;Proyecto2.c: 107:                 else if (ADCON0bits.CHS == 1){
  2724                           
  2725  0582  1A86               	btfsc	6,5	;volatile
  2726  0583  2D85               	goto	u74_21
  2727  0584  2D86               	goto	u74_20
  2728  0585                     u74_21:
  2729  0585  2D90               	goto	i1l152
  2730  0586                     u74_20:
  2731  0586                     i1l1488:
  2732                           
  2733                           ;Proyecto2.c: 109:                 }
  2734  0586  0878               	movf	_bandera,w
  2735  0587  1D03               	btfss	3,2
  2736  0588  2D8A               	goto	u75_21
  2737  0589  2D8B               	goto	u75_20
  2738  058A                     u75_21:
  2739  058A  2D8E               	goto	i1l1492
  2740  058B                     u75_20:
  2741  058B                     i1l1490:
  2742                           
  2743                           ;Proyecto2.c: 110:                 else if (ADCON0bits.CHS == 2){
  2744  058B  01F8               	clrf	_bandera
  2745  058C  0AF8               	incf	_bandera,f
  2746                           
  2747                           ;Proyecto2.c: 111:                     ADCON0bits.CHS = 0;
  2748  058D  2D92               	goto	i1l149
  2749  058E                     i1l1492:
  2750                           
  2751                           ;Proyecto2.c: 113:                 _delay((unsigned long)((100)*(8000000/4000000.0)));
  2752  058E  01F8               	clrf	_bandera
  2753  058F  2D92               	goto	i1l149
  2754  0590                     i1l152:	
  2755                           ;Proyecto2.c: 116:     }
  2756                           
  2757                           
  2758                           ;Proyecto2.c: 117: }
  2759  0590  1009               	bcf	9,0	;volatile
  2760                           
  2761                           ;Proyecto2.c: 118:     return;
  2762  0591  1089               	bcf	9,1	;volatile
  2763  0592                     i1l149:
  2764                           
  2765                           ;Proyecto2.c: 120: 
  2766  0592  100B               	bcf	11,0	;volatile
  2767  0593                     i1l156:
  2768  0593  0877               	movf	??_interrupcion+4,w
  2769  0594  008A               	movwf	10
  2770  0595  0E76               	swapf	??_interrupcion+3,w
  2771  0596  0083               	movwf	3
  2772  0597  0EFE               	swapf	btemp,f
  2773  0598  0E7E               	swapf	btemp,w
  2774  0599  0009               	retfie
  2775  059A                     __end_of_interrupcion:
  2776                           
  2777                           	psect	intentry
  2778  0004                     __pintentry:	
  2779                           ;incstack = 0
  2780                           ; Regs used in _interrupcion: [wreg+status,2+status,0+pclath+cstack]
  2781                           
  2782  0004                     interrupt_function:
  2783  007E                     saved_w	set	btemp
  2784  0004  00FE               	movwf	btemp
  2785  0005  0E03               	swapf	3,w
  2786  0006  00F6               	movwf	??_interrupcion+3
  2787  0007  080A               	movf	10,w
  2788  0008  00F7               	movwf	??_interrupcion+4
  2789  0009  120A  118A  2CB7   	ljmp	_interrupcion
  2790                           
  2791                           	psect	text6
  2792  06AE                     __ptext6:	
  2793 ;; *************** function _leer *****************
  2794 ;; Defined at:
  2795 ;;		line 279 in file "Proyecto2.c"
  2796 ;; Parameters:    Size  Location     Type
  2797 ;;  localidad       1    wreg     unsigned char 
  2798 ;; Auto vars:     Size  Location     Type
  2799 ;;  localidad       1    1[COMMON] unsigned char 
  2800 ;;  dato            1    2[COMMON] unsigned char 
  2801 ;; Return value:  Size  Location     Type
  2802 ;;                  1    wreg      unsigned char 
  2803 ;; Registers used:
  2804 ;;		wreg
  2805 ;; Tracked objects:
  2806 ;;		On entry : 0/0
  2807 ;;		On exit  : 0/0
  2808 ;;		Unchanged: 0/0
  2809 ;; Data sizes:     COMMON   BANK0   BANK1   BANK3   BANK2
  2810 ;;      Params:         0       0       0       0       0
  2811 ;;      Locals:         2       0       0       0       0
  2812 ;;      Temps:          1       0       0       0       0
  2813 ;;      Totals:         3       0       0       0       0
  2814 ;;Total ram usage:        3 bytes
  2815 ;; Hardware stack levels used:    1
  2816 ;; This function calls:
  2817 ;;		Nothing
  2818 ;; This function is called by:
  2819 ;;		_interrupcion
  2820 ;; This function uses a non-reentrant model
  2821 ;;
  2822                           
  2823                           
  2824                           ;psect for function _leer
  2825  06AE                     _leer:
  2826                           
  2827                           ;incstack = 0
  2828                           ; Regs used in _leer: [wreg]
  2829                           ;leer@localidad stored from wreg
  2830  06AE  00F1               	movwf	leer@localidad
  2831  06AF                     i1l1200:
  2832                           
  2833                           ;Proyecto2.c: 280:     EEADR = localidad;
  2834  06AF  0871               	movf	leer@localidad,w
  2835  06B0  1283               	bcf	3,5	;RP0=0, select bank2
  2836  06B1  1703               	bsf	3,6	;RP1=1, select bank2
  2837  06B2  008D               	movwf	13	;volatile
  2838  06B3                     i1l1202:
  2839                           
  2840                           ;Proyecto2.c: 281:     EECON1bits.EEPGD = 0;
  2841  06B3  1683               	bsf	3,5	;RP0=1, select bank3
  2842  06B4  1703               	bsf	3,6	;RP1=1, select bank3
  2843  06B5  138C               	bcf	12,7	;volsfr
  2844  06B6                     i1l1204:
  2845                           
  2846                           ;Proyecto2.c: 282:     EECON1bits.RD = 1;
  2847  06B6  140C               	bsf	12,0	;volsfr
  2848                           
  2849                           ;Proyecto2.c: 283:     char dato = EEDAT;
  2850  06B7  1283               	bcf	3,5	;RP0=0, select bank2
  2851  06B8  1703               	bsf	3,6	;RP1=1, select bank2
  2852  06B9  080C               	movf	12,w	;volatile
  2853  06BA  00F0               	movwf	??_leer
  2854  06BB  0870               	movf	??_leer,w
  2855  06BC  00F2               	movwf	leer@dato
  2856                           
  2857                           ;Proyecto2.c: 284:     return dato;
  2858  06BD  0872               	movf	leer@dato,w
  2859  06BE                     i1l187:
  2860  06BE  0008               	return
  2861  06BF                     __end_of_leer:
  2862                           
  2863                           	psect	text7
  2864  0692                     __ptext7:	
  2865 ;; *************** function _escribir *****************
  2866 ;; Defined at:
  2867 ;;		line 259 in file "Proyecto2.c"
  2868 ;; Parameters:    Size  Location     Type
  2869 ;;  dato            1    wreg     unsigned char 
  2870 ;;  localidad       1    0[COMMON] unsigned char 
  2871 ;; Auto vars:     Size  Location     Type
  2872 ;;  dato            1    1[COMMON] unsigned char 
  2873 ;; Return value:  Size  Location     Type
  2874 ;;                  1    wreg      void 
  2875 ;; Registers used:
  2876 ;;		wreg
  2877 ;; Tracked objects:
  2878 ;;		On entry : 0/0
  2879 ;;		On exit  : 0/0
  2880 ;;		Unchanged: 0/0
  2881 ;; Data sizes:     COMMON   BANK0   BANK1   BANK3   BANK2
  2882 ;;      Params:         1       0       0       0       0
  2883 ;;      Locals:         1       0       0       0       0
  2884 ;;      Temps:          0       0       0       0       0
  2885 ;;      Totals:         2       0       0       0       0
  2886 ;;Total ram usage:        2 bytes
  2887 ;; Hardware stack levels used:    1
  2888 ;; This function calls:
  2889 ;;		Nothing
  2890 ;; This function is called by:
  2891 ;;		_interrupcion
  2892 ;; This function uses a non-reentrant model
  2893 ;;
  2894                           
  2895                           
  2896                           ;psect for function _escribir
  2897  0692                     _escribir:
  2898                           
  2899                           ;incstack = 0
  2900                           ; Regs used in _escribir: [wreg]
  2901                           ;escribir@dato stored from wreg
  2902  0692  00F1               	movwf	escribir@dato
  2903  0693                     i1l1190:
  2904                           
  2905                           ;Proyecto2.c: 260:     EEADR = localidad;
  2906  0693  0870               	movf	escribir@localidad,w
  2907  0694  1283               	bcf	3,5	;RP0=0, select bank2
  2908  0695  1703               	bsf	3,6	;RP1=1, select bank2
  2909  0696  008D               	movwf	13	;volatile
  2910                           
  2911                           ;Proyecto2.c: 261:     EEDAT = dato;
  2912  0697  0871               	movf	escribir@dato,w
  2913  0698  008C               	movwf	12	;volatile
  2914  0699                     i1l1192:
  2915                           
  2916                           ;Proyecto2.c: 263:     INTCONbits.GIE = 0;
  2917  0699  138B               	bcf	11,7	;volatile
  2918  069A                     i1l1194:
  2919                           
  2920                           ;Proyecto2.c: 265:     EECON1bits.EEPGD = 0;
  2921  069A  1683               	bsf	3,5	;RP0=1, select bank3
  2922  069B  1703               	bsf	3,6	;RP1=1, select bank3
  2923  069C  138C               	bcf	12,7	;volsfr
  2924  069D                     i1l1196:
  2925                           
  2926                           ;Proyecto2.c: 266:     EECON1bits.WREN = 1;
  2927  069D  150C               	bsf	12,2	;volsfr
  2928                           
  2929                           ;Proyecto2.c: 268:     EECON2 = 0x55;
  2930  069E  3055               	movlw	85
  2931  069F  008D               	movwf	13	;volsfr
  2932                           
  2933                           ;Proyecto2.c: 269:     EECON2 = 0xAA;
  2934  06A0  30AA               	movlw	170
  2935  06A1  008D               	movwf	13	;volsfr
  2936  06A2                     i1l1198:
  2937                           
  2938                           ;Proyecto2.c: 271:     EECON1bits.WR = 1;
  2939  06A2  148C               	bsf	12,1	;volsfr
  2940  06A3                     i1l181:	
  2941                           ;Proyecto2.c: 273:     while(PIR2bits.EEIF == 0);
  2942                           
  2943  06A3  1283               	bcf	3,5	;RP0=0, select bank0
  2944  06A4  1303               	bcf	3,6	;RP1=0, select bank0
  2945  06A5  1E0D               	btfss	13,4	;volatile
  2946  06A6  2EA8               	goto	u43_21
  2947  06A7  2EA9               	goto	u43_20
  2948  06A8                     u43_21:
  2949  06A8  2EA3               	goto	i1l181
  2950  06A9                     u43_20:
  2951  06A9                     i1l183:
  2952                           
  2953                           ;Proyecto2.c: 274:     PIR2bits.EEIF = 0;
  2954  06A9  120D               	bcf	13,4	;volatile
  2955                           
  2956                           ;Proyecto2.c: 276:     EECON1bits.WREN = 0;
  2957  06AA  1683               	bsf	3,5	;RP0=1, select bank3
  2958  06AB  1703               	bsf	3,6	;RP1=1, select bank3
  2959  06AC  110C               	bcf	12,2	;volsfr
  2960  06AD                     i1l184:
  2961  06AD  0008               	return
  2962  06AE                     __end_of_escribir:
  2963  007E                     btemp	set	126	;btemp
  2964  007E                     wtemp0	set	126
  2965                           
  2966                           	psect	config
  2967                           
  2968                           ;Config register CONFIG1 @ 0x2007
  2969                           ;	Oscillator Selection bits
  2970                           ;	FOSC = INTRC_NOCLKOUT, INTOSCIO oscillator: I/O function on RA6/OSC2/CLKOUT pin, I/O f
      +                          unction on RA7/OSC1/CLKIN
  2971                           ;	Watchdog Timer Enable bit
  2972                           ;	WDTE = OFF, WDT disabled and can be enabled by SWDTEN bit of the WDTCON register
  2973                           ;	Power-up Timer Enable bit
  2974                           ;	PWRTE = ON, PWRT enabled
  2975                           ;	RE3/MCLR pin function select bit
  2976                           ;	MCLRE = OFF, RE3/MCLR pin function is digital input, MCLR internally tied to VDD
  2977                           ;	Code Protection bit
  2978                           ;	CP = OFF, Program memory code protection is disabled
  2979                           ;	Data Code Protection bit
  2980                           ;	CPD = OFF, Data memory code protection is disabled
  2981                           ;	Brown Out Reset Selection bits
  2982                           ;	BOREN = OFF, BOR disabled
  2983                           ;	Internal External Switchover bit
  2984                           ;	IESO = OFF, Internal/External Switchover mode is disabled
  2985                           ;	Fail-Safe Clock Monitor Enabled bit
  2986                           ;	FCMEN = OFF, Fail-Safe Clock Monitor is disabled
  2987                           ;	Low Voltage Programming Enable bit
  2988                           ;	LVP = ON, RB3/PGM pin has PGM function, low voltage programming enabled
  2989                           ;	In-Circuit Debugger Mode bit
  2990                           ;	DEBUG = 0x1, unprogrammed default
  2991  2007                     	org	8199
  2992  2007  30C4               	dw	12484
  2993                           
  2994                           ;Config register CONFIG2 @ 0x2008
  2995                           ;	Brown-out Reset Selection bit
  2996                           ;	BOR4V = BOR40V, Brown-out Reset set to 4.0V
  2997                           ;	Flash Program Memory Self Write Enable bits
  2998                           ;	WRT = OFF, Write protection off
  2999  2008                     	org	8200
  3000  2008  3FFF               	dw	16383

Data Sizes:
    Strings     439
    Constant    0
    Data        0
    BSS         13
    Persistent  0
    Stack       0

Auto Spaces:
    Space          Size  Autos    Used
    COMMON           14      8      14
    BANK0            80     12      19
    BANK1            80      0       0
    BANK3            96      0       0
    BANK2            96      0       0

Pointer List with Targets:

    printf@f	PTR const unsigned char  size(2) Largest target is 43
		 -> STR_20(CODE[18]), STR_19(CODE[18]), STR_18(CODE[25]), STR_17(CODE[26]), 
		 -> STR_16(CODE[26]), STR_15(CODE[14]), STR_14(CODE[14]), STR_13(CODE[15]), 
		 -> STR_12(CODE[20]), STR_11(CODE[13]), STR_10(CODE[16]), STR_9(CODE[14]), 
		 -> STR_8(CODE[27]), STR_7(CODE[32]), STR_6(CODE[22]), STR_5(CODE[11]), 
		 -> STR_4(CODE[29]), STR_3(CODE[43]), STR_2(CODE[26]), STR_1(CODE[30]), 

    printf@ap	PTR void [1] size(1) Largest target is 2
		 -> ?_printf(BANK0[2]), 


Critical Paths under _main in COMMON

    None.

Critical Paths under _interrupcion in COMMON

    _interrupcion->_leer

Critical Paths under _main in BANK0

    _main->_terminal
    _terminal->_printf
    _printf->_putch

Critical Paths under _interrupcion in BANK0

    None.

Critical Paths under _main in BANK1

    None.

Critical Paths under _interrupcion in BANK1

    None.

Critical Paths under _main in BANK3

    None.

Critical Paths under _interrupcion in BANK3

    None.

Critical Paths under _main in BANK2

    None.

Critical Paths under _interrupcion in BANK2

    None.

Call Graph Tables:

 ---------------------------------------------------------------------------------
 (Depth) Function   	        Calls       Base Space   Used Autos Params    Refs
 ---------------------------------------------------------------------------------
 (0) _main                                                 1     1      0    1588
                                             11 BANK0      1     1      0
                              _setup
                           _terminal
 ---------------------------------------------------------------------------------
 (1) _terminal                                             3     3      0    1588
                                              8 BANK0      3     3      0
                             _printf
 ---------------------------------------------------------------------------------
 (2) _printf                                              19    17      2    1588
                                              1 BANK0      7     5      2
                              _putch
 ---------------------------------------------------------------------------------
 (3) _putch                                                1     1      0      22
                                              0 BANK0      1     1      0
 ---------------------------------------------------------------------------------
 (1) _setup                                                1     1      0       0
                                              0 BANK0      1     1      0
 ---------------------------------------------------------------------------------
 Estimated maximum stack depth 3
 ---------------------------------------------------------------------------------
 (Depth) Function   	        Calls       Base Space   Used Autos Params    Refs
 ---------------------------------------------------------------------------------
 (4) _interrupcion                                         5     5      0     241
                                              3 COMMON     5     5      0
                           _escribir
                               _leer
 ---------------------------------------------------------------------------------
 (5) _leer                                                 3     3      0      45
                                              0 COMMON     3     3      0
 ---------------------------------------------------------------------------------
 (5) _escribir                                             2     1      1     196
                                              0 COMMON     2     1      1
 ---------------------------------------------------------------------------------
 Estimated maximum stack depth 5
 ---------------------------------------------------------------------------------

 Call Graph Graphs:

 _main (ROOT)
   _setup
   _terminal
     _printf
       _putch

 _interrupcion (ROOT)
   _escribir
   _leer

 Address spaces:
Name               Size   Autos  Total    Cost      Usage
BITCOMMON            E      0       0       0        0.0%
EEDATA             100      0       0       0        0.0%
NULL                 0      0       0       0        0.0%
CODE                 0      0       0       0        0.0%
COMMON               E      8       E       1      100.0%
BITSFR0              0      0       0       1        0.0%
SFR0                 0      0       0       1        0.0%
BITSFR1              0      0       0       2        0.0%
SFR1                 0      0       0       2        0.0%
STACK                0      0       0       2        0.0%
ABS                  0      0      21       3        0.0%
BITBANK0            50      0       0       4        0.0%
BITSFR3              0      0       0       4        0.0%
SFR3                 0      0       0       4        0.0%
BANK0               50      C      13       5       23.8%
BITSFR2              0      0       0       5        0.0%
SFR2                 0      0       0       5        0.0%
BITBANK1            50      0       0       6        0.0%
BANK1               50      0       0       7        0.0%
BITBANK3            60      0       0       8        0.0%
BANK3               60      0       0       9        0.0%
BITBANK2            60      0       0      10        0.0%
BANK2               60      0       0      11        0.0%
DATA                 0      0      21      12        0.0%


Microchip Technology PIC Macro Assembler V2.31 build 20201012212115 
Symbol Table                                                                                   Fri Jun 04 10:42:15 2021

                      pc 0002                       fsr 0004                      l200 00D2  
                    l204 0137                      l214 01B7                      l224 0237  
                    l208 0158                      l218 01D8                      l162 062F  
                    l228 025C                      l236 027D                      l190 06C2  
                    l175 05F4                      l328 0691                      l177 05F8  
                    l193 06C8                      l178 061B                      l196 006D  
                    _RD0 0040                      _RD1 0041                      u410 06C6  
                    u411 06C5                      u420 0691                      u500 0143  
                    u421 0690                      u501 0142                      u510 014C  
                    _PR2 0092                      u511 014B                      u440 05F8  
                    u600 0243                      u520 0155                      u441 05F7  
                    u601 0242                      u521 0154                      u610 024E  
                    u530 015E                      u450 0073                      u611 024D  
                    u531 015D                      u451 0072                      u620 0257  
                    u540 01BD                      u460 0079                      u621 0256  
                    u541 01BC                      u461 0078                      u630 0263  
                    u550 01C3                      u470 00D8                      u631 0262  
                    u551 01C2                      u471 00D7                      u560 01CC  
                    u480 00DE                      u800 065A                      u561 01CB  
                    u481 00DD                      u801 0659                      u570 01D5  
                    u490 013D                      u571 01D4                      u491 013C  
                    u580 01DE                      u581 01DD                      u590 023D  
                    u591 023C                      u760 0629                      u817 0660  
                    u761 0628                      u770 0635                      u907 0125  
                    u827 002A                      u771 0634                      u780 063E  
                    u917 0171                      u837 0043                      u781 063D  
                    u790 064C                      u927 018B                      u847 005C  
                    u791 064B                      u937 01A5                      u857 008C  
                    u947 01F1                      u867 00A6                      u957 020B  
                    u877 00C0                      u967 0225                      u887 00F1  
                    u977 026B                      u897 010B                      u987 05CB  
                    fsr0 0004                      indf 0000                     l1210 059E  
                   l1300 05F3                     l1220 05A7                     l1212 059F  
                   l1310 060B                     l1302 05FF                     l1230 05AE  
                   l1222 05A8                     l1214 05A3                     l1320 0617  
                   l1312 060E                     l1304 0603                     l1240 05B6  
                   l1232 05AF                     l1224 05AB                     l1216 05A5  
                   l1208 059A                     l1400 01D8                     l1322 0618  
                   l1314 0612                     l1306 0607                     l1250 05BB  
                   l1242 05B7                     l1234 05B2                     l1226 05AC  
                   l1218 05A6                     l1410 0212                     l1402 01DE  
                   l1330 0054                     l1316 0613                     l1308 060A  
                   l1260 05C6                     l1252 05BC                     l1244 05B8  
                   l1236 05B4                     l1228 05AD                     l1180 06C6  
                   l1420 024E                     l1412 021D                     l1404 01DE  
                   l1340 0084                     l1332 0062                     l1324 0022  
                   l1500 0629                     l1318 0616                     l1270 05D4  
                   l1262 05C7                     l1254 05BD                     l1246 05B9  
                   l1238 05B5                     l1430 0271                     l1422 0251  
                   l1414 023D                     l1406 01E9                     l1350 00DE  
                   l1342 0093                     l1334 0073                     l1326 0030  
                   l1510 0651                     l1502 0635                     l1280 05E4  
                   l1272 05D8                     l1264 05CE                     l1256 05BE  
                   l1248 05BA                     l1184 066A                     l1432 027C  
                   l1424 0257                     l1416 0243                     l1408 01F8  
                   l1360 011D                     l1352 00DE                     l1344 00AD  
                   l1336 0079                     l1328 003B                     l1512 065A  
                   l1504 063E                     l1290 05EB                     l1282 05E5  
                   l1274 05DC                     l1266 05D1                     l1258 05C4  
                   l1178 06C2                     l1186 0671                     l1418 0248  
                   l1370 014F                     l1362 013D                     l1354 00E9  
                   l1346 00B8                     l1338 0079                     l1426 025D  
                   l1514 065C                     l1506 0643                     l1292 05EC  
                   l1284 05E8                     l1276 05E0                     l1268 05D2  
                   l1188 0677                     l1428 0263                     l1380 0169  
                   l1372 0155                     l1364 0143                     l1356 00F8  
                   l1348 00D8                     l1516 0663                     l1508 064C  
                   l1294 05ED                     l1286 05E9                     l1278 05E2  
                   l1390 01C3                     l1382 0178                     l1366 0146  
                   l1358 0112                     l1374 0158                     l1296 05EE  
                   l1288 05EA                     l1392 01C6                     l1384 0192  
                   l1376 015E                     l1368 014C                     l1298 05F1  
                   l1394 01CC                     l1386 019D                     l1378 015E  
                   l1396 01CF                     l1388 01BD                     l1398 01D5  
                   l1494 061C                     l1496 0621                     l1498 0624  
                   _ADIF 0066                     STR_1 034B                     STR_2 03A1  
                   STR_3 0300                     STR_4 0369                     STR_5 04AC  
                   STR_6 0408                     STR_7 032B                     STR_8 0386  
                   STR_9 0475                     _RBIF 0058                     _RCIF 0065  
                   _TMR0 0001                     _TXIF 0064                     _dato 007D  
                   _main 061C                     _leer 06AE                     _var1 007A  
                   _var2 0079                     btemp 007E                     start 000C  
                  ?_main 0070                    ?_leer 0070                    _EEADR 010D  
                  STR_10 0456                    _EEDAT 010C                    STR_11 049F  
                  STR_20 0432                    STR_12 041E                    STR_13 0466  
                  STR_14 0491                    STR_15 0483                    STR_16 03BB  
                  STR_17 03D5                    STR_18 03EF                    STR_19 0444  
                  _ANSEL 0188                    i1l150 0582                    i1l152 0590  
                  i1l144 0513                    i1l148 054B                    i1l156 0593  
                  i1l181 06A3                    i1l149 0592                    i1l183 06A9  
                  i1l184 06AD                    i1l187 06BE                    _RCREG 001A  
                  _SPBRG 0099                    u43_20 06A9                    u43_21 06A8  
                  _PORTA 0005                    _PORTB 0006                    _PORTC 0007  
                  _PORTD 0008                    _PORTE 0009                    u70_20 051D  
                  u70_21 051C                    u71_20 0524                    u71_21 0523  
                  u72_20 0528                    u64_20 04BD                    u72_21 0527  
                  u64_21 04BC                    u73_20 054F                    u65_20 04C6  
                  u73_21 054E                    u65_21 04C5                    _TRISA 0085  
                  _TRISB 0086                    _TRISC 0087                    _TRISD 0088  
                  _TRISE 0089                    u74_20 0586                    u66_20 04DA  
                  u74_21 0585                    u66_21 04D9                    u75_20 058B  
                  u67_20 04EE                    u75_21 058A                    u67_21 04ED  
                  u68_20 04FA                    u68_21 04F9                    u69_20 050E  
                  u69_21 050D                    u69_25 050A                    _TXREG 0019  
                  u99_27 0543                    _setup 059A                    _putch 06BF  
                  pclath 000A                    status 0003                    wtemp0 007E  
        __initialization 000F             __end_of_main 066A             __end_of_leer 06BF  
                 ??_main 002B                   ??_leer 0070                   _ADRESH 001E  
                 _CCPR1L 0015                   _CCPR2L 001B                   _EECON2 018D  
                 ?_setup 0070                   ?_putch 0070                   _ANSELH 0189  
                 u100_27 0577                   i1l1200 06AF                   i1l1202 06B3  
                 i1l1204 06B6                   i1l1190 0693                   i1l1192 0699  
                 i1l1440 04CA                   i1l1194 069A                   i1l1450 04EE  
                 i1l1442 04D1                   i1l1434 04B7                   i1l1196 069D  
                 i1l1460 0517                   i1l1444 04DA                   i1l1452 04F5  
                 i1l1436 04BD                   i1l1198 06A2                   i1l1470 0528  
                 i1l1462 051D                   i1l1446 04DE                   i1l1438 04C6  
                 i1l1454 04F6                   i1l1480 0563                   i1l1472 0529  
                 i1l1464 051F                   i1l1456 04FA                   i1l1448 04E5  
                 i1l1490 058B                   i1l1482 056B                   i1l1474 053D  
                 i1l1458 050E                   i1l1466 0520                   i1l1492 058E  
                 i1l1484 0571                   i1l1476 054F                   i1l1468 0524  
                 i1l1486 057E                   i1l1478 0551                   i1l1488 0586  
                 _SPBRGH 009A         __end_of_escribir 06AE                   _printf 066A  
                 saved_w 007E         __end_of_terminal 027E             escribir@dato 0071  
__end_of__initialization 001E            leer@localidad 0071           __pcstackCOMMON 0070  
          ?_interrupcion 0070            __end_of_setup 061C            __end_of_putch 06C9  
         _OPTION_REGbits 0081                  ??_setup 0020                  ??_putch 0020  
             __pbssBANK0 002C           ??_interrupcion 0073               __pmaintext 061C  
             __pintentry 0004                  ?_printf 0021               __stringtab 027E  
              ?_escribir 0070                ?_terminal 0070                  _bandera 0078  
                __ptext1 0022                  __ptext2 066A                  __ptext3 06BF  
                __ptext4 059A                  __ptext5 04B7                  __ptext6 06AE  
                __ptext7 0692          __size_of_printf 0028                _T2CONbits 0012  
                _motores 002E     end_of_initialization 001E               ??_escribir 0071  
              _RCSTAbits 0018                  printf@c 0027                  printf@f 0021  
             ??_terminal 0028             __pstringtext 0300                _PORTBbits 0006  
              _PORTEbits 0009                _TRISCbits 0087     __end_of_interrupcion 059A  
            _CCP1CONbits 0017              _CCP2CONbits 001D                _TXSTAbits 0098  
            _BAUDCTLbits 0187           __end_of_printf 0692      start_initialization 000F  
               ??_printf 0023              __pbssCOMMON 0078                ___latbits 0002  
          __pcstackBANK0 0020        __size_of_escribir 001C        __size_of_terminal 025C  
              __pstrings 027E    __size_of_interrupcion 00E3                _localidad 0032  
         __size_of_setup 0082           __size_of_putch 000A        escribir@localidad 0070  
      interrupt_function 0004                 _IOCBbits 0096                 _PIE1bits 008C  
               _PIR1bits 000C                 _PIR2bits 000D                _valor_ADC 002C  
           _interrupcion 04B7               _ADCON0bits 001F              __stringbase 0290  
             _ADCON1bits 009F                 _WPUBbits 0095                 _N_timer0 0030  
             putch@valor 0020               _EECON1bits 018C       __end_of__stringtab 0290  
               _escribir 0692                 _lectura1 007C                 _lectura2 007B  
          __size_of_main 004E            __size_of_leer 0011                 _terminal 0022  
               leer@dato 0072               _INTCONbits 000B                 intlevel1 0000  
              stringcode 0288               _OSCCONbits 008F                 printf@ap 0026  
               stringtab 027E  
